
VIC20 BASIC  #901486-04 (C)1981 CBM	CR6502/11 version 20.53.12	4-Nov-87  12:9:18	Page 1
Copyright (C) 1981 Commodore Business Machines, Inc.   VBASIC.SRC

Error Addr  Code          Seq   Source statement

                            1   	.nam VIC20 BASIC  #901486-04 (C)1981 CBM
                            2   	.subttl Copyright (C) 1981 Commodore Business Machines, Inc.
                            3   
                            4   ; Converted to VAX/VMS BSO format 10/30/87 by Fred Bowen
                            5   
                            6   ;	.include DISCLAIMER
                            7   ;	.include DECLARE
                            8   ;	.include TOKENS
                            9   ;	.include TOKEN2
                           10   ;	.include CODE1
                           11   ;	.include CODE2
                           12   ;	.include CODE3
                           13   ;	.include CODE4
                           14   ;	.include CODE5
                           15   ;	.include CODE6
                           16   ;	.include CODE7
                           17   ;	.include CODE8
                           18   ;	.include CODE9
                           19   ;	.include CODE10
                           20   ;	.include CODE11
                           21   ;	.include CODE12
                           22   ;	.include CODE13
                           23   ;	.include CODE14
                           24   ;	.include CODE15
                           25   ;	.include CODE16
                           26   ;	.include CODE17
                           27   ;	.include CODE18
                           28   ;	.include CODE19
                           29   ;	.include CODE20
                           30   ;	.include CODE21
                           31   ;	.include CODE22
                           32   ;	.include CODE23
                           33   ;	.include CODE24
                           34   ;	.include CODE25
                           35   ;	.include CODE26
                           36   ;	.include TRIG
                           37   ;	.include INIT
                           38   ;	.end
                           39   

VIC20 BASIC  #901486-04 (C)1981 CBM	CR6502/11 version 20.53.12	4-Nov-87  12:9:18	Page 2
Copyright (C) 1981 Commodore Business Machines, Inc.   VBASIC.SRC

Error Addr  Code          Seq   Source statement

                           41   ;	.subttl DISCLAIMER
                           42   
                           43   ;****************************************
                           44   ;*                                      *
                           45   ;* BBBBB   AAAA   SSS  IIII  CCCC       *
                           46   ;* BB  BB AA  AA SS  S  II  CC   C      *
                           47   ;* BB  BB AA  AA  SS    II  CC          *
                           48   ;* BBBBB  AAAAAA   SS   II  CC          *
                           49   ;* BB  BB AA  AA    SS  II  CC          *
                           50   ;* BB  BB AA  AA S  SS  II  CC   C      *
                           51   ;* BBBBB  AA  AA  SSS  IIII  CCCC       *
                           52   ;*                                      *
                           53   ;****************************************
                           54   ;
                           55   ;****************************************
                           56   ;*                                      *
                           57   ;* pet basic version 2.1                *
                           58   ;*      this version of pet basic is    *
                           59   ;* designed to function with the kernal *
                           60   ;* provided in the folowing machines:   *
                           61   ;*      2001-4/8 (b/n)                  *
                           62   ;*      4016/4032                       *
                           63   ;*      8032                            *
                           64   ;*      toy                             *
                           65   ;*      vic-1001/-20                    *
                           66   ;*                                      *
                           67   ;* copyright (c) 1981 by                *
                           68   ;* commodore business machines          *
                           69   ;*                                      *
                           70   ;****************************************
                           71   
                           72   
                           73   
                           74   ;****listing date --1200 06 march 1980***
                           75   
                           76   
                           77   
                           78   ;****************************************
                           79   ;* this software is furnished for use in*
                           80   ;* the above listed machines only.      *
                           81   ;*                                      *
                           82   ;* copies thereof may not be provided   *
                           83   ;* or made available for use on any     *
                           84   ;* system.                              *
                           85   ;*                                      *
                           86   ;* the information in this document is  *
                           87   ;* subject to change without notice.    *
                           88   ;*                                      *
                           89   ;* no responsibility is assumed for     *
                           90   ;* reliability of this software.        *

VIC20 BASIC  #901486-04 (C)1981 CBM	CR6502/11 version 20.53.12	4-Nov-87  12:9:18	Page 2-1
Copyright (C) 1981 Commodore Business Machines, Inc.   VBASIC.SRC

Error Addr  Code          Seq   Source statement

                           91   ;*                                      *
                           92   ;****************************************
                           93   
                           94   ;.end
                           95   

VIC20 BASIC  #901486-04 (C)1981 CBM	CR6502/11 version 20.53.12	4-Nov-87  12:9:18	Page 3
DECLARE   VBASIC.SRC

Error Addr  Code          Seq   Source statement

                           97   	.subttl DECLARE
            =0001          98   addprc   =1
            =C000          99   romloc   =$c000	 ; vixen rom
            =0016         100   linlen   =22    ; vixen screen size ?why?
            =0059         101   buflen   =89    ; vixen buffer
            =0002         102   bufpag   =2
            =0200         103   buf      =512
            =01FB         104   stkend   =507
            =000B         105   clmwid   =11    ; print window 11 chars
            =00FF         106   pi       =255
            =0017         107   numlev   =23
            =0003         108   strsiz   =3
                          109   
            =0000         110   	* = $0000
                          111   
     0000   =0003         112   usrpok   *=*+3
     0003   =0005         113   adray1   *=*+2	  ; convert float->integer
     0005   =0007         114   adray2   *=*+2	  ; convert integer->float
     0007                 115   integr
     0007   =0008         116   charac   *=*+1
     0008   =0009         117   endchr   *=*+1
     0009   =000A         118   trmpos   *=*+1
     000A   =000B         119   verck    *=*+1
     000B   =000C         120   count    *=*+1
     000C   =000D         121   dimflg   *=*+1
     000D   =000E         122   valtyp   *=*+1
     000E   =000F         123   intflg   *=*+1
     000F                 124   garbfl
     000F   =0010         125   dores    *=*+1
     0010   =0011         126   subflg   *=*+1
     0011   =0012         127   inpflg   *=*+1
     0012                 128   domask
     0012   =0013         129   tansgn   *=*+1
     0013   =0014         130   channl   *=*+1
     0014                 131   poker
     0014   =0016         132   linnum   *=*+2
     0016   =0017         133   temppt   *=*+1
     0017   =0019         134   lastpt   *=*+2
     0019   =0022         135   tempst   *=*+9
     0022                 136   index
     0022   =0024         137   index1   *=*+2
     0024   =0026         138   index2   *=*+2
     0026   =0027         139   resho    *=*+1
     0027   =0028         140   resmoh   *=*+1
     0028                 141   addend
     0028   =0029         142   resmo    *=*+1
     0029   =002A         143   reslo    *=*+1
            =002B         144   	*=*+1
     002B   =002D         145   txttab   *=*+2
     002D   =002F         146   vartab   *=*+2

VIC20 BASIC  #901486-04 (C)1981 CBM	CR6502/11 version 20.53.12	4-Nov-87  12:9:18	Page 3-1
DECLARE   VBASIC.SRC

Error Addr  Code          Seq   Source statement

     002F   =0031         147   arytab   *=*+2
     0031   =0033         148   strend   *=*+2
     0033   =0035         149   fretop   *=*+2
     0035   =0037         150   frespc   *=*+2
     0037   =0039         151   memsiz   *=*+2
     0039   =003B         152   curlin   *=*+2
     003B   =003D         153   oldlin   *=*+2
     003D   =003F         154   oldtxt   *=*+2
     003F   =0041         155   datlin   *=*+2
     0041   =0043         156   datptr   *=*+2
     0043   =0045         157   inpptr   *=*+2
     0045   =0047         158   varnam   *=*+2
     0047                 159   fdecpt
     0047   =0049         160   varpnt   *=*+2
     0049                 161   lstpnt
     0049                 162   andmsk
     0049   =004B         163   forpnt   *=*+2
            =004A         164   eormsk   =forpnt+1
     004B                 165   vartxt
     004B   =004D         166   opptr    *=*+2
     004D   =004E         167   opmask   *=*+1
     004E                 168   grbpnt
     004E                 169   tempf3
     004E   =0050         170   defpnt   *=*+2
     0050   =0052         171   dscpnt   *=*+2
            =0053         172   	*=*+1
     0053   =0054         173   four6    *=*+1
     0054   =0055         174   jmper    *=*+1
     0055   =0056         175   size     *=*+1
     0056   =0057         176   oldov    *=*+1
     0057   =0058         177   tempf1   *=*+1
     0058                 178   arypnt
     0058   =005A         179   highds   *=*+2
     005A   =005C         180   hightr   *=*+2
     005C                 181   tempf2
            =005D         182   	*=*+1
     005D                 183   deccnt
     005D   =005F         184   lowds    *=*+2
     005F                 185   grbtop
     005F                 186   dptflg
     005F   =0060         187   lowtr    *=*+1
     0060   =0061         188   expsgn   *=*+1
            =005E         189   tenexp   =lowds+1
            =0060         190   epsgn    =lowtr+1
     0061                 191   dsctmp
     0061                 192   fac
     0061   =0062         193   facexp   *=*+1
     0062   =0063         194   facho    *=*+1
     0063   =0064         195   facmoh   *=*+1
     0064                 196   indice

VIC20 BASIC  #901486-04 (C)1981 CBM	CR6502/11 version 20.53.12	4-Nov-87  12:9:18	Page 3-2
DECLARE   VBASIC.SRC

Error Addr  Code          Seq   Source statement

     0064   =0065         197   facmo    *=*+1
     0065   =0066         198   faclo    *=*+1
     0066   =0067         199   facsgn   *=*+1
     0067                 200   degree
     0067   =0068         201   sgnflg   *=*+1
     0068   =0069         202   bits     *=*+1
     0069   =006A         203   argexp   *=*+1
     006A   =006B         204   argho    *=*+1
     006B   =006C         205   argmoh   *=*+1
     006C   =006D         206   argmo    *=*+1
     006D   =006E         207   arglo    *=*+1
     006E   =006F         208   argsgn   *=*+1
     006F                 209   strngi
     006F   =0070         210   arisgn   *=*+1
     0070   =0071         211   facov    *=*+1
     0071                 212   bufptr
     0071                 213   strng2
     0071                 214   polypt
     0071                 215   curtol
     0071   =0073         216   fbufpt   *=*+2
     0073   =0079         217   chrget   *=*+6
     0079   =007A         218   chrgot   *=*+1
     007A   =0080         219   txtptr   *=*+6
     0080   =008A         220   qnum     *=*+10
     008A   =008B         221   chrrts   *=*+1
     008B   =0090         222   rndx     *=*+5
                          223   
            =00FF         224   	* = 255
                          225   
     00FF   =0100         226   lofbuf   *=*+1
     0100   =0101         227   fbuffr   *=*+1
            =006F         228   strng1   =arisgn
                          229   
                          230   
            =0300         231   	* = $0300	 ; basic indirects
                          232   
     0300   =0302         233   ierror   *=*+2	  ; indirect error (output error in .x)
     0302   =0304         234   imain    *=*+2	  ; indirect main (system direct loop)
     0304   =0306         235   icrnch   *=*+2	  ; indirect crunch (tokenization routine)
     0306   =0308         236   iqplop   *=*+2	  ; indirect list (char list)
     0308   =030A         237   igone    *=*+2	  ; indirect gone (char dispatch)
     030A   =030C         238   ieval    *=*+2	  ; indirect eval (symbol evaluation)
                          239   
                          240   ; temp storage until system integration
                          241   ; sys 6502 regs
                          242   
     030C   =030D         243   sareg    *=*+1	  ; .a reg
     030D   =030E         244   sxreg    *=*+1	  ; .x reg
     030E   =030F         245   syreg    *=*+1	  ; .y reg
     030F   =0310         246   spreg    *=*+1	  ; .p reg

VIC20 BASIC  #901486-04 (C)1981 CBM	CR6502/11 version 20.53.12	4-Nov-87  12:9:18	Page 3-3
DECLARE   VBASIC.SRC

Error Addr  Code          Seq   Source statement

                          247   
            =0314         248   	* = $0300+20      ; system indirects follow
                          249   
                          250   ;.end
                          251   

VIC20 BASIC  #901486-04 (C)1981 CBM	CR6502/11 version 20.53.12	4-Nov-87  12:9:18	Page 4
TOKENS   VBASIC.SRC

Error Addr  Code          Seq   Source statement

                          253   	.subttl TOKENS
            =C000         254   	* = romloc
                          255   
     C000   E378          256   	.word   init   		; c000 hard reset
     C002   E467          257   	.word   panic		; c000 soft reset
                          258   
     C004   43 42 4D      259   	.byte   'CBMBASIC'
     C007   42 41 53            
     C00A   49 43               
                          260   
     C00C   C830          261   stmdsp   .word  end-1
     C00E   C741          262   	.word   for-1
     C010   CD1D          263   	.word   next-1
     C012   C8F7          264   	.word   data-1
     C014   CBA4          265   	.word   inputn-1
     C016   CBBE          266   	.word   input-1
     C018   D080          267   	.word   dim-1
     C01A   CC05          268   	.word   read-1
     C01C   C9A4          269   	.word   let-1
     C01E   C89F          270   	.word   goto-1
     C020   C870          271   	.word   run-1
     C022   C927          272   	.word   if-1
     C024   C81C          273   	.word   restor-1
     C026   C882          274   	.word   gosub-1
     C028   C8D1          275   	.word   return-1
     C02A   C93A          276   	.word   rem-1
     C02C   C82E          277   	.word   stop-1
     C02E   C94A          278   	.word   ongoto-1
     C030   D82C          279   	.word   fnwait-1
     C032   E164          280   	.word   cload-1
     C034   E152          281   	.word   csave-1
     C036   E161          282   	.word   cverf-1
     C038   D3B2          283   	.word   def-1
     C03A   D823          284   	.word   poke-1
     C03C   CA7F          285   	.word   printn-1
     C03E   CA9F          286   	.word   print-1
     C040   C856          287   	.word   cont-1
     C042   C69B          288   	.word   list-1
     C044   C65D          289   	.word   clear-1
     C046   CA85          290   	.word   cmd-1
     C048   E126          291   	.word   csys-1
     C04A   E1BA          292   	.word   copen-1
     C04C   E1C3          293   	.word   cclos-1
     C04E   CB7A          294   	.word   get-1
     C050   C641          295   	.word   scrath-1
     C052   DC39          296   fundsp   .word  sgn
     C054   DCCC          297   	.word   int
     C056   DC58          298   	.word   abs
     C058   0000          299   usrloc   .word  usrpok
     C05A   D37D          300   	.word   fre

VIC20 BASIC  #901486-04 (C)1981 CBM	CR6502/11 version 20.53.12	4-Nov-87  12:9:18	Page 4-1
TOKENS   VBASIC.SRC

Error Addr  Code          Seq   Source statement

     C05C   D39E          301   	.word   pos
     C05E   DF71          302   	.word   sqr
     C060   E094          303   	.word   rnd
     C062   D9EA          304   	.word   log
     C064   DFED          305   	.word   exp
     C066   E261          306   	.word   cos
     C068   E268          307   	.word   sin
     C06A   E2B1          308   	.word   tan
     C06C   E30B          309   	.word   atn
     C06E   D80D          310   	.word   peek
     C070   D77C          311   	.word   len
     C072   D465          312   	.word   strd
     C074   D7AD          313   	.word   val
     C076   D78B          314   	.word   asc
     C078   D6EC          315   	.word   chrd
     C07A   D700          316   	.word   leftd
     C07C   D72C          317   	.word   rightd
     C07E   D737          318   	.word   midd
     C080   79            319   optab    .byte  121
     C081   D869          320   	.word   faddt-1
     C083   79            321   	.byte   121
     C084   D852          322   	.word   fsubt-1
     C086   7B            323   	.byte   123
     C087   DA2A          324   	.word   fmultt-1
     C089   7B            325   	.byte   123
     C08A   DB11          326   	.word   fdivt-1
     C08C   7F            327   	.byte   127
     C08D   DF7A          328   	.word   fpwrt-1
     C08F   50            329   	.byte   80
     C090   CFE8          330   	.word   andop-1
     C092   46            331   	.byte   70
     C093   CFE5          332   	.word   orop-1
     C095   7D            333   negtab   .byte  125
     C096   DFB3          334   	.word   negop-1
     C098   5A            335   nottab   .byte  90
     C099   CED3          336   	.word   notop-1
     C09B   64            337   ptdorl   .byte  100
     C09C   D015          338   	.word   dorel-1
            =007F         339   q	= 128-1
                          340   
     C09E   45 4E C4      341   RESLST   .BYTE  'EN',$C4
            =0080         342   ENDTK    =@200
     C0A1   46 4F D2      343   	.BYTE   'FO',$D2
            =0081         344   FORTK    =@201
     C0A4   4E 45 58      345   	.BYTE   'NEX',$D4
     C0A7   D4                  
     C0A8   44 41 54      346   	.BYTE   'DAT',$C1
     C0AB   C1                  
            =0083         347   DATATK   =@203
     C0AC   49 4E 50      348   	.BYTE   'INPUT',$A3

VIC20 BASIC  #901486-04 (C)1981 CBM	CR6502/11 version 20.53.12	4-Nov-87  12:9:18	Page 4-2
TOKENS   VBASIC.SRC

Error Addr  Code          Seq   Source statement

     C0AF   55 54 A3            
     C0B2   49 4E 50      349   	.BYTE   'INPU',$D4
     C0B5   55 D4               
     C0B7   44 49 CD      350   	.BYTE   'DI',$CD
     C0BA   52 45 41      351   	.BYTE   'REA',$C4
     C0BD   C4                  
     C0BE   4C 45 D4      352   	.BYTE   'LE',$D4
     C0C1   47 4F 54      353   	.BYTE   'GOT',$CF
     C0C4   CF                  
            =0089         354   GOTOTK   =@211
     C0C5   52 55 CE      355   	.BYTE   'RU',$CE
     C0C8   49 C6         356   	.BYTE   'I',$C6
     C0CA   52 45 53      357   	.BYTE   'RESTOR',$C5
     C0CD   54 4F 52            
     C0D0   C5                  
     C0D1   47 4F 53      358   	.BYTE   'GOSU',$C2
     C0D4   55 C2               
            =008D         359   GOSUTK   =@215
     C0D6   52 45 54      360   	.BYTE   'RETUR',$CE
     C0D9   55 52 CE            
     C0DC   52 45 CD      361   	.BYTE   'RE',$CD
            =008F         362   REMTK    =@217
     C0DF   53 54 4F      363   	.BYTE   'STO',$D0
     C0E2   D0                  
     C0E3   4F CE         364   	.BYTE   'O',$CE
     C0E5   57 41 49      365   	.BYTE   'WAI',$D4
     C0E8   D4                  
     C0E9   4C 4F 41      366   	.BYTE   'LOA',$C4
     C0EC   C4                  
     C0ED   53 41 56      367   	.BYTE   'SAV',$C5
     C0F0   C5                  
     C0F1   56 45 52      368   	.BYTE   'VERIF',$D9
     C0F4   49 46 D9            
     C0F7   44 45 C6      369   	.BYTE   'DE',$C6
     C0FA   50 4F 4B      370   	.BYTE   'POK',$C5
     C0FD   C5                  
     C0FE   50 52 49      371   	.BYTE   'PRINT',$A3
     C101   4E 54 A3            
     C104   50 52 49      372   	.BYTE   'PRIN',$D4
     C107   4E D4               
            =0099         373   PRINTK   =@231
     C109   43 4F 4E      374   	.BYTE   'CON',$D4
     C10C   D4                  
     C10D   4C 49 53      375   	.BYTE   'LIS',$D4
     C110   D4                  
     C111   43 4C D2      376   	.BYTE   'CL',$D2
     C114   43 4D C4      377   	.BYTE   'CM',$C4
     C117   53 59 D3      378   	.BYTE   'SY',$D3
     C11A   4F 50 45      379   	.BYTE   'OPE',$CE
     C11D   CE                  

VIC20 BASIC  #901486-04 (C)1981 CBM	CR6502/11 version 20.53.12	4-Nov-87  12:9:18	Page 4-3
TOKENS   VBASIC.SRC

Error Addr  Code          Seq   Source statement

     C11E   43 4C 4F      380   	.BYTE   'CLOS',$C5
     C121   53 C5               
     C123   47 45 D4      381   	.BYTE   'GE',$D4
     C126   4E 45 D7      382   	.BYTE   'NE',$D7
            =00A2         383   SCRATK   =@242
                          384   ;.end
                          385   

VIC20 BASIC  #901486-04 (C)1981 CBM	CR6502/11 version 20.53.12	4-Nov-87  12:9:18	Page 5
TOKEN2   VBASIC.SRC

Error Addr  Code          Seq   Source statement

                          387   	.subttl TOKEN2
                          388   
     C129   54 41 42      389   	.BYTE   'TAB',$A8
     C12C   A8                  
            =00A3         390   TABTK    =@243
     C12D   54 CF         391   	.BYTE   'T',$CF
            =00A4         392   TOTK     =@244
     C12F   46 CE         393   	.BYTE   'F',$CE
            =00A5         394   FNTK     =@245
     C131   53 50 43      395   	.BYTE   'SPC',$A8
     C134   A8                  
            =00A6         396   SPCTK    =@246
     C135   54 48 45      397   	.BYTE   'THE',$CE
     C138   CE                  
            =00A7         398   THENTK   =@247
     C139   4E 4F D4      399   	.BYTE   'NO',$D4
            =00A8         400   NOTTK    =@250
     C13C   53 54 45      401   	.BYTE   'STE',$D0
     C13F   D0                  
            =00A9         402   STEPTK   =@251
     C140   AB            403   	.BYTE   $AB
            =00AA         404   PLUSTK   =@252
     C141   AD            405   	.BYTE   $AD
            =00AB         406   MINUTK   =@253
     C142   AA            407   	.BYTE   $AA
     C143   AF            408   	.BYTE   $AF
     C144   DE            409   	.BYTE   $DE
     C145   41 4E C4      410   	.BYTE   'AN',$C4
     C148   4F D2         411   	.BYTE   'O',$D2
     C14A   BE            412   	.BYTE   190
            =00B1         413   GREATK   =@261
     C14B   BD            414   	.BYTE   $BD
            =00B2         415   EQULTK   =@262
     C14C   BC            416   	.BYTE   188
            =00B3         417   LESSTK   =@263
     C14D   53 47 CE      418   	.BYTE   'SG',$CE
            =00B4         419   ONEFUN   =@264
     C150   49 4E D4      420   	.BYTE   'IN',$D4
     C153   41 42 D3      421   	.BYTE   'AB',$D3
     C156   55 53 D2      422   	.BYTE   'US',$D2
     C159   46 52 C5      423   	.BYTE   'FR',$C5
     C15C   50 4F D3      424   	.BYTE   'PO',$D3
     C15F   53 51 D2      425   	.BYTE   'SQ',$D2
     C162   52 4E C4      426   	.BYTE   'RN',$C4
     C165   4C 4F C7      427   	.BYTE   'LO',$C7
     C168   45 58 D0      428   	.BYTE   'EX',$D0
     C16B   43 4F D3      429   	.BYTE   'CO',$D3
     C16E   53 49 CE      430   	.BYTE   'SI',$CE
     C171   54 41 CE      431   	.BYTE   'TA',$CE
     C174   41 54 CE      432   	.BYTE   'AT',$CE

VIC20 BASIC  #901486-04 (C)1981 CBM	CR6502/11 version 20.53.12	4-Nov-87  12:9:18	Page 5-1
TOKEN2   VBASIC.SRC

Error Addr  Code          Seq   Source statement

     C177   50 45 45      433   	.BYTE   'PEE',$CB
     C17A   CB                  
     C17B   4C 45 CE      434   	.BYTE   'LE',$CE
     C17E   53 54 52      435   	.BYTE   'STR',$A4
     C181   A4                  
     C182   56 41 CC      436   	.BYTE   'VA',$CC
     C185   41 53 C3      437   	.BYTE   'AS',$C3
     C188   43 48 52      438   	.BYTE   'CHR',$A4
     C18B   A4                  
            =00C7         439   LASNUM   =@307
     C18C   4C 45 46      440   	.BYTE   'LEFT',$A4
     C18F   54 A4               
     C191   52 49 47      441   	.BYTE   'RIGHT',$A4
     C194   48 54 A4            
     C197   4D 49 44      442   	.BYTE   'MID',$A4
     C19A   A4                  
     C19B   47 CF         443   	.BYTE   'G',$CF
            =00CB         444   GOTK     =@313
     C19D   00            445   	.BYTE   0
                          446   

VIC20 BASIC  #901486-04 (C)1981 CBM	CR6502/11 version 20.53.12	4-Nov-87  12:9:18	Page 6
ERROR MESSAGES   VBASIC.SRC

Error Addr  Code          Seq   Source statement

                          448   	.subttl ERROR MESSAGES
     C19E   54 4F 4F      449   ERR01    .BYTE  'TOO MANY FILE',$D3
     C1A1   20 4D 41            
     C1A4   4E 59 20            
     C1A7   46 49 4C            
     C1AA   45 D3               
     C1AC   46 49 4C      450   ERR02    .BYTE  'FILE OPE',$CE
     C1AF   45 20 4F            
     C1B2   50 45 CE            
     C1B5   46 49 4C      451   ERR03    .BYTE  'FILE NOT OPE',$CE
     C1B8   45 20 4E            
     C1BB   4F 54 20            
     C1BE   4F 50 45            
     C1C1   CE                  
     C1C2   46 49 4C      452   ERR04    .BYTE  'FILE NOT FOUN',$C4
     C1C5   45 20 4E            
     C1C8   4F 54 20            
     C1CB   46 4F 55            
     C1CE   4E C4               
     C1D0   44 45 56      453   ERR05    .BYTE  'DEVICE NOT PRESEN',$D4
     C1D3   49 43 45            
     C1D6   20 4E 4F            
     C1D9   54 20 50            
     C1DC   52 45 53            
     C1DF   45 4E D4            
     C1E2   4E 4F 54      454   ERR06    .BYTE  'NOT INPUT FIL',$C5
     C1E5   20 49 4E            
     C1E8   50 55 54            
     C1EB   20 46 49            
     C1EE   4C C5               
     C1F0   4E 4F 54      455   ERR07    .BYTE  'NOT OUTPUT FIL',$C5
     C1F3   20 4F 55            
     C1F6   54 50 55            
     C1F9   54 20 46            
     C1FC   49 4C C5            
     C1FF   4D 49 53      456   ERR08    .BYTE  'MISSING FILE NAM',$C5
     C202   53 49 4E            
     C205   47 20 46            
     C208   49 4C 45            
     C20B   20 4E 41            
     C20E   4D C5               
     C210   49 4C 4C      457   ERR09    .BYTE  'ILLEGAL DEVICE NUMBE',$D2
     C213   45 47 41            
     C216   4C 20 44            
     C219   45 56 49            
     C21C   43 45 20            
     C21F   4E 55 4D            
     C222   42 45 D2            
     C225   4E 45 58      458   ERR10    .BYTE  'NEXT WITHOUT FO',$D2
     C228   54 20 57            

VIC20 BASIC  #901486-04 (C)1981 CBM	CR6502/11 version 20.53.12	4-Nov-87  12:9:18	Page 6-1
ERROR MESSAGES   VBASIC.SRC

Error Addr  Code          Seq   Source statement

     C22B   49 54 48            
     C22E   4F 55 54            
     C231   20 46 4F            
     C234   D2                  
            =000A         459   ERRNF    =10
     C235   53 59 4E      460   ERR11    .BYTE  'SYNTA',$D8
     C238   54 41 D8            
            =000B         461   ERRSN    =11
     C23B   52 45 54      462   ERR12    .BYTE  'RETURN WITHOUT GOSU',$C2
     C23E   55 52 4E            
     C241   20 57 49            
     C244   54 48 4F            
     C247   55 54 20            
     C24A   47 4F 53            
     C24D   55 C2               
            =000C         463   ERRRG    =12
     C24F   4F 55 54      464   ERR13    .BYTE  'OUT OF DAT',$C1
     C252   20 4F 46            
     C255   20 44 41            
     C258   54 C1               
            =000D         465   ERROD    =13
     C25A   49 4C 4C      466   ERR14    .BYTE  'ILLEGAL QUANTIT',$D9
     C25D   45 47 41            
     C260   4C 20 51            
     C263   55 41 4E            
     C266   54 49 54            
     C269   D9                  
            =000E         467   ERRFC    =14
     C26A   4F 56 45      468   ERR15    .BYTE  'OVERFLO',$D7
     C26D   52 46 4C            
     C270   4F D7               
            =000F         469   ERROV    =15
     C272   4F 55 54      470   ERR16    .BYTE  'OUT OF MEMOR',$D9
     C275   20 4F 46            
     C278   20 4D 45            
     C27B   4D 4F 52            
     C27E   D9                  
            =0010         471   ERROM    =16
     C27F   55 4E 44      472   ERR17    .BYTE  'UNDEF',$27,'D STATEMEN',$D4
     C282   45 46 27            
     C285   44 20 53            
     C288   54 41 54            
     C28B   45 4D 45            
     C28E   4E D4               
            =0011         473   ERRUS    =17
     C290   42 41 44      474   ERR18    .BYTE  'BAD SUBSCRIP',$D4
     C293   20 53 55            
     C296   42 53 43            
     C299   52 49 50            
     C29C   D4                  

VIC20 BASIC  #901486-04 (C)1981 CBM	CR6502/11 version 20.53.12	4-Nov-87  12:9:18	Page 6-2
ERROR MESSAGES   VBASIC.SRC

Error Addr  Code          Seq   Source statement

            =0012         475   ERRBS    =18
     C29D   52 45 44      476   ERR19    .BYTE  'REDIM',$27,'D ARRA',$D9
     C2A0   49 4D 27            
     C2A3   44 20 41            
     C2A6   52 52 41            
     C2A9   D9                  
            =0013         477   ERRDD    =19
     C2AA   44 49 56      478   ERR20    .BYTE  'DIVISION BY ZER',$CF
     C2AD   49 53 49            
     C2B0   4F 4E 20            
     C2B3   42 59 20            
     C2B6   5A 45 52            
     C2B9   CF                  
            =0014         479   ERRDVO   =20
     C2BA   49 4C 4C      480   ERR21    .BYTE  'ILLEGAL DIREC',$D4
     C2BD   45 47 41            
     C2C0   4C 20 44            
     C2C3   49 52 45            
     C2C6   43 D4               
            =0015         481   ERRID    =21
     C2C8   54 59 50      482   ERR22    .BYTE  'TYPE MISMATC',$C8
     C2CB   45 20 4D            
     C2CE   49 53 4D            
     C2D1   41 54 43            
     C2D4   C8                  
            =0016         483   ERRTM    =22
     C2D5   53 54 52      484   ERR23    .BYTE  'STRING TOO LON',$C7
     C2D8   49 4E 47            
     C2DB   20 54 4F            
     C2DE   4F 20 4C            
     C2E1   4F 4E C7            
            =0017         485   ERRLS    =23
     C2E4   46 49 4C      486   ERR24    .BYTE  'FILE DAT',$C1
     C2E7   45 20 44            
     C2EA   41 54 C1            
            =0018         487   ERRBD    =24
     C2ED   46 4F 52      488   ERR25    .BYTE  'FORMULA TOO COMPLE',$D8
     C2F0   4D 55 4C            
     C2F3   41 20 54            
     C2F6   4F 4F 20            
     C2F9   43 4F 4D            
     C2FC   50 4C 45            
     C2FF   D8                  
            =0019         489   ERRST    =25
     C300   43 41 4E      490   ERR26    .BYTE  'CAN',$27,'T CONTINU',$C5
     C303   27 54 20            
     C306   43 4F 4E            
     C309   54 49 4E            
     C30C   55 C5               
            =001A         491   ERRCN    =26

VIC20 BASIC  #901486-04 (C)1981 CBM	CR6502/11 version 20.53.12	4-Nov-87  12:9:18	Page 6-3
ERROR MESSAGES   VBASIC.SRC

Error Addr  Code          Seq   Source statement

     C30E   55 4E 44      492   ERR27    .BYTE  'UNDEF',$27,'D FUNCTIO',$CE
     C311   45 46 27            
     C314   44 20 46            
     C317   55 4E 43            
     C31A   54 49 4F            
     C31D   CE                  
            =001B         493   ERRUF    =27
     C31E   56 45 52      494   ERR28    .BYTE  'VERIF',$D9
     C321   49 46 D9            
            =001C         495   ERVFY    =28
     C324   4C 4F 41      496   ERR29    .BYTE  'LOA',$C4
     C327   C4                  
            =001D         497   ERLOAD   =29
                          498   

VIC20 BASIC  #901486-04 (C)1981 CBM	CR6502/11 version 20.53.12	4-Nov-87  12:9:18	Page 7
ERROR  MESSAGES   VBASIC.SRC

Error Addr  Code          Seq   Source statement

                          500   	.subttl ERROR  MESSAGES
                          501   ; table to translate error message #
                          502   ; to address of string containing message
                          503   ;
     C328   C19E          504   errtab   .word  err01
     C32A   C1AC          505   	.word   err02
     C32C   C1B5          506   	.word   err03
     C32E   C1C2          507   	.word   err04
     C330   C1D0          508   	.word   err05
     C332   C1E2          509   	.word   err06
     C334   C1F0          510   	.word   err07
     C336   C1FF          511   	.word   err08
     C338   C210          512   	.word   err09
     C33A   C225          513   	.word   err10
     C33C   C235          514   	.word   err11
     C33E   C23B          515   	.word   err12
     C340   C24F          516   	.word   err13
     C342   C25A          517   	.word   err14
     C344   C26A          518   	.word   err15
     C346   C272          519   	.word   err16
     C348   C27F          520   	.word   err17
     C34A   C290          521   	.word   err18
     C34C   C29D          522   	.word   err19
     C34E   C2AA          523   	.word   err20
     C350   C2BA          524   	.word   err21
     C352   C2C8          525   	.word   err22
     C354   C2D5          526   	.word   err23
     C356   C2E4          527   	.word   err24
     C358   C2ED          528   	.word   err25
     C35A   C300          529   	.word   err26
     C35C   C30E          530   	.word   err27
     C35E   C31E          531   	.word   err28
     C360   C324          532   	.word   err29
     C362   C383          533   	.word   err30
                          534   
                          535   
     C364   0D 4F 4B      536   OKMSG    .BYTE  $D,'OK',$D,$0
     C367   0D 00               
     C369   0D 20 45      537   ERR      .BYTE  $D,' ERROR',0	  ; ADD A C/R FOR VIXEN SCREEN
     C36C   52 52 4F            
     C36F   52 00               
     C371   20 49 4E      538   INTXT    .BYTE  ' IN ',0
     C374   20 00               
     C376   0D 0A 52      539   REDDY    .BYTE  $D,$A,'READY.',$D,$A,0
     C379   45 41 44            
     C37C   59 2E 0D            
     C37F   0A 00               
            =001E         540   ERBRK    =30
     C381   0D 0A         541   BRKTXT   .BYTE  $D,$A
     C383   42 52 45      542   ERR30    .BYTE  'BREAK',0,$A0   ; SHIFTED SPACE

VIC20 BASIC  #901486-04 (C)1981 CBM	CR6502/11 version 20.53.12	4-Nov-87  12:9:18	Page 7-1
ERROR  MESSAGES   VBASIC.SRC

Error Addr  Code          Seq   Source statement

     C386   41 4B 00            
     C389   A0                  
                          543   

VIC20 BASIC  #901486-04 (C)1981 CBM	CR6502/11 version 20.53.12	4-Nov-87  12:9:18	Page 8
ERROR  MESSAGES   VBASIC.SRC

Error Addr  Code          Seq   Source statement

            =0012         545   forsiz   =@22
                          546   
     C38A   BA            547   fndfor  tsx
     C38B   E8            548   	inx
     C38C   E8            549   	inx
     C38D   E8            550   	inx
     C38E   E8            551   	inx
     C38F   BD 0101       552   ffloop  lda  257,x
     C392   C9 81         553   	cmp  #fortk
     C394   D0 21         554   	bne  ffrts
     C396   A5 4A         555   	lda  forpnt+1
     C398   D0 0A         556   	bne  cmpfor
     C39A   BD 0102       557   	lda  258,x
     C39D   85 49         558   	sta  forpnt
     C39F   BD 0103       559   	lda  259,x
     C3A2   85 4A         560   	sta  forpnt+1
     C3A4   DD 0103       561   cmpfor  cmp  259,x
     C3A7   D0 07         562   	bne  addfrs
     C3A9   A5 49         563   	lda  forpnt
     C3AB   DD 0102       564   	cmp  258,x
     C3AE   F0 07         565   	beq  ffrts
     C3B0   8A            566   addfrs  txa
     C3B1   18            567   	clc
     C3B2   69 12         568   	adc  #forsiz
     C3B4   AA            569   	tax
     C3B5   D0 D8         570   	bne  ffloop
     C3B7   60            571   ffrts   rts
                          572   
     C3B8   20 C408       573   bltu    jsr  reason
     C3BB   85 31         574   	sta  strend
     C3BD   84 32         575   	sty  strend+1
     C3BF   38            576   bltuc   sec
     C3C0   A5 5A         577   	lda  hightr
     C3C2   E5 5F         578   	sbc  lowtr
     C3C4   85 22         579   	sta  index
     C3C6   A8            580   	tay
     C3C7   A5 5B         581   	lda  hightr+1
     C3C9   E5 60         582   	sbc  lowtr+1
     C3CB   AA            583   	tax
     C3CC   E8            584   	inx
     C3CD   98            585   	tya
     C3CE   F0 23         586   	beq  decblt
     C3D0   A5 5A         587   	lda  hightr
     C3D2   38            588   	sec
     C3D3   E5 22         589   	sbc  index
     C3D5   85 5A         590   	sta  hightr
     C3D7   B0 03         591   	bcs  blt1
     C3D9   C6 5B         592   	dec  hightr+1
     C3DB   38            593   	sec
     C3DC   A5 58         594   blt1    lda  highds

VIC20 BASIC  #901486-04 (C)1981 CBM	CR6502/11 version 20.53.12	4-Nov-87  12:9:18	Page 8-1
ERROR  MESSAGES   VBASIC.SRC

Error Addr  Code          Seq   Source statement

     C3DE   E5 22         595   	sbc  index
     C3E0   85 58         596   	sta  highds
     C3E2   B0 08         597   	bcs  moren1
     C3E4   C6 59         598   	dec  highds+1
     C3E6   90 04         599   	bcc  moren1
     C3E8   B1 5A         600   bltlp   lda  (hightr),y
     C3EA   91 58         601   	sta  (highds),y
     C3EC   88            602   moren1  dey
     C3ED   D0 F9         603   	bne  bltlp
     C3EF   B1 5A         604   	lda  (hightr),y
     C3F1   91 58         605   	sta  (highds),y
     C3F3   C6 5B         606   decblt  dec  hightr+1
     C3F5   C6 59         607   	dec  highds+1
     C3F7   CA            608   	dex
     C3F8   D0 F2         609   	bne  moren1
     C3FA   60            610   	rts
                          611   
     C3FB   0A            612   getstk  asl  a
     C3FC   69 3E         613   	adc  #numlev+numlev+16
     C3FE   B0 35         614   	bcs  omerr
     C400   85 22         615   	sta  index
     C402   BA            616   	tsx
     C403   E4 22         617   	cpx  index
     C405   90 2E         618   	bcc  omerr
     C407   60            619   	rts
                          620   
     C408   C4 34         621   reason  cpy  fretop+1
     C40A   90 28         622   	bcc  rearts
     C40C   D0 04         623   	bne  trymor
     C40E   C5 33         624   	cmp  fretop
     C410   90 22         625   	bcc  rearts
     C412   48            626   trymor  pha
     C413   A2 09         627   	ldx  #8+addprc
     C415   98            628   	tya
     C416   48            629   reasav  pha
     C417   B5 57         630   	lda  highds-1,x
     C419   CA            631   	dex
     C41A   10 FA         632   	bpl  reasav
     C41C   20 D526       633   	jsr  garba2
     C41F   A2 F7         634   	ldx  #248-addprc
     C421   68            635   reasto  pla
     C422   95 61         636   	sta  highds+8+addprc,x
     C424   E8            637   	inx
     C425   30 FA         638   	bmi  reasto
     C427   68            639   	pla
     C428   A8            640   	tay
     C429   68            641   	pla
     C42A   C4 34         642   	cpy  fretop+1
     C42C   90 06         643   	bcc  rearts
     C42E   D0 05         644   	bne  omerr

VIC20 BASIC  #901486-04 (C)1981 CBM	CR6502/11 version 20.53.12	4-Nov-87  12:9:18	Page 8-2
ERROR  MESSAGES   VBASIC.SRC

Error Addr  Code          Seq   Source statement

     C430   C5 33         645   	cmp  fretop
     C432   B0 01         646   	bcs  omerr
     C434   60            647   rearts  rts
                          648   ;.end
                          649   

VIC20 BASIC  #901486-04 (C)1981 CBM	CR6502/11 version 20.53.12	4-Nov-87  12:9:18	Page 9
CODE1   VBASIC.SRC

Error Addr  Code          Seq   Source statement

                          651   	.subttl CODE1
     C435   A2 10         652   omerr   ldx  #errom
     C437   6C 0300       653   error   jmp  (ierror)
                          654   
     C43A   8A            655   nerror  txa
     C43B   0A            656   	asl  a
     C43C   AA            657   	tax
     C43D   BD C326       658   	lda  errtab-2,x
     C440   85 22         659   	sta  index1
     C442   BD C327       660   	lda  errtab-1,x
     C445   85 23         661   	sta  index1+1
     C447   20 FFCC       662   	jsr  clschn
     C44A   A9 00         663   	lda  #0
     C44C   85 13         664   	sta  channl
     C44E   20 CAD7       665   errcrd  jsr  crdo
     C451   20 CB45       666   	jsr  outqst
     C454   A0 00         667   	ldy  #0
     C456   B1 22         668   geterr  lda  (index1),y
     C458   48            669   	pha
     C459   29 7F         670   	and  #127
     C45B   20 CB47       671   	jsr  outdo
     C45E   C8            672   	iny
     C45F   68            673   	pla
     C460   10 F4         674   	bpl  geterr
     C462   20 C67A       675   	jsr  stkini
     C465   A9 69         676   	lda  #<err
     C467   A0 C3         677   	ldy  #>err
     C469   20 CB1E       678   errfin  jsr  strout
     C46C   A4 3A         679   	ldy  curlin+1
     C46E   C8            680   	iny
     C46F   F0 03         681   	beq  ready
     C471   20 DDC2       682   	jsr  inprt
                                
                                
                                
                                
                                
     C474   A9 76         684   ready   lda  #<reddy
     C476   A0 C3         685   	ldy  #>reddy
     C478   20 CB1E       686   	jsr  strout
     C47B   A9 80         687   	lda  #$80       ; direct messages on
     C47D   20 FF90       688   	jsr  setmsg     ; from kernal
                                
                                
                                
                                
                                
     C480   6C 0302       690   main    jmp  (imain)
                          691   
     C483   20 C560       692   nmain   jsr  inlin

VIC20 BASIC  #901486-04 (C)1981 CBM	CR6502/11 version 20.53.12	4-Nov-87  12:9:18	Page 9-1
CODE1   VBASIC.SRC

Error Addr  Code          Seq   Source statement

     C486   86 7A         693   	stx  txtptr
     C488   84 7B         694   	sty  txtptr+1
     C48A   20 0073       695   	jsr  chrget
     C48D   AA            696   	tax
     C48E   F0 F0         697   	beq  main
     C490   A2 FF         698   	ldx  #255
     C492   86 3A         699   	stx  curlin+1
     C494   90 06         700   	bcc  main1
     C496   20 C579       701   	jsr  crunch
     C499   4C C7E1       702   	jmp  gone
                          703   
     C49C   20 C96B       704   main1   jsr  linget
     C49F   20 C579       705   	jsr  crunch
     C4A2   84 0B         706   	sty  count
     C4A4   20 C613       707   	jsr  fndlin
     C4A7   90 44         708   	bcc  nodel
     C4A9   A0 01         709   	ldy  #1
     C4AB   B1 5F         710   	lda  (lowtr),y
     C4AD   85 23         711   	sta  index1+1
     C4AF   A5 2D         712   	lda  vartab
     C4B1   85 22         713   	sta  index1
     C4B3   A5 60         714   	lda  lowtr+1
     C4B5   85 25         715   	sta  index2+1
     C4B7   A5 5F         716   	lda  lowtr
     C4B9   88            717   	dey
     C4BA   F1 5F         718   	sbc  (lowtr),y
     C4BC   18            719   	clc
     C4BD   65 2D         720   	adc  vartab
     C4BF   85 2D         721   	sta  vartab
     C4C1   85 24         722   	sta  index2
     C4C3   A5 2E         723   	lda  vartab+1
     C4C5   69 FF         724   	adc  #255
     C4C7   85 2E         725   	sta  vartab+1
     C4C9   E5 60         726   	sbc  lowtr+1
     C4CB   AA            727   	tax
     C4CC   38            728   	sec
     C4CD   A5 5F         729   	lda  lowtr
     C4CF   E5 2D         730   	sbc  vartab
     C4D1   A8            731   	tay
     C4D2   B0 03         732   	bcs  qdect1
     C4D4   E8            733   	inx
     C4D5   C6 25         734   	dec  index2+1
     C4D7   18            735   qdect1  clc
     C4D8   65 22         736   	adc  index1
     C4DA   90 03         737   	bcc  mloop
     C4DC   C6 23         738   	dec  index1+1
     C4DE   18            739   	clc
     C4DF   B1 22         740   mloop   lda  (index1),y
     C4E1   91 24         741   	sta  (index2),y
     C4E3   C8            742   	iny

VIC20 BASIC  #901486-04 (C)1981 CBM	CR6502/11 version 20.53.12	4-Nov-87  12:9:18	Page 9-2
CODE1   VBASIC.SRC

Error Addr  Code          Seq   Source statement

     C4E4   D0 F9         743   	bne  mloop
     C4E6   E6 23         744   	inc  index1+1
     C4E8   E6 25         745   	inc  index2+1
     C4EA   CA            746   	dex
     C4EB   D0 F2         747   	bne  mloop
     C4ED   20 C659       748   nodel   jsr  runc
     C4F0   20 C533       749   	jsr  lnkprg
     C4F3   AD 0200       750   	lda  buf
     C4F6   F0 88         751   	beq  main
     C4F8   18            752   	clc
     C4F9   A5 2D         753   	lda  vartab
     C4FB   85 5A         754   	sta  hightr
     C4FD   65 0B         755   	adc  count
     C4FF   85 58         756   	sta  highds
     C501   A4 2E         757   	ldy  vartab+1
     C503   84 5B         758   	sty  hightr+1
     C505   90 01         759   	bcc  nodelc
     C507   C8            760   	iny
     C508   84 59         761   nodelc  sty  highds+1
     C50A   20 C3B8       762   	jsr  bltu
     C50D   A5 14         763   	lda  linnum
     C50F   A4 15         764   	ldy  linnum+1
     C511   8D 01FE       765   	sta  buf-2
     C514   8C 01FF       766   	sty  buf-1
     C517   A5 31         767   	lda  strend
     C519   A4 32         768   	ldy  strend+1
     C51B   85 2D         769   	sta  vartab
     C51D   84 2E         770   	sty  vartab+1
     C51F   A4 0B         771   	ldy  count
     C521   88            772   	dey
     C522   B9 01FC       773   stolop  lda  buf-4,y
     C525   91 5F         774   	sta  (lowtr),y
     C527   88            775   	dey
     C528   10 F8         776   	bpl  stolop
     C52A   20 C659       777   fini    jsr  runc
     C52D   20 C533       778   	jsr  lnkprg
     C530   4C C480       779   	jmp  main
                          780   
     C533   A5 2B         781   lnkprg  lda  txttab
     C535   A4 2C         782   	ldy  txttab+1
     C537   85 22         783   	sta  index
     C539   84 23         784   	sty  index+1
     C53B   18            785   	clc
     C53C   A0 01         786   chead   ldy  #1
     C53E   B1 22         787   	lda  (index),y
     C540   F0 1D         788   	beq  lnkrts
     C542   A0 04         789   	ldy  #4
     C544   C8            790   czloop  iny
     C545   B1 22         791   	lda  (index),y
     C547   D0 FB         792   	bne  czloop

VIC20 BASIC  #901486-04 (C)1981 CBM	CR6502/11 version 20.53.12	4-Nov-87  12:9:18	Page 9-3
CODE1   VBASIC.SRC

Error Addr  Code          Seq   Source statement

     C549   C8            793   	iny
     C54A   98            794   	tya
     C54B   65 22         795   	adc  index
     C54D   AA            796   	tax
     C54E   A0 00         797   	ldy  #0
     C550   91 22         798   	sta  (index),y
     C552   A5 23         799   	lda  index+1
     C554   69 00         800   	adc  #0
     C556   C8            801   	iny
     C557   91 22         802   	sta  (index),y
     C559   86 22         803   	stx  index
     C55B   85 23         804   	sta  index+1
     C55D   90 DD         805   	bcc  chead
     C55F   60            806   lnkrts  rts
                                
                                
                                
                                
                                
                          808   ;function to get a line one character at
                          809   ;a time from the input channel and
                          810   ;build it in the input buffer.
                          811   
     C560   A2 00         812   inlin   ldx  #0
                          813   
     C562   20 E10F       814   inlinc  jsr  inchr
     C565   C9 0D         815   	cmp  #13	; a carriage return?
     C567   F0 0D         816   	beq  finin1     ; yes...done build
                          817   ;
     C569   9D 0200       818   	sta  buf,x      ; put it away
     C56C   E8            819   	inx
     C56D   E0 59         820   	cpx  #buflen    ; max character line?
     C56F   90 F1         821   	bcc  inlinc     ; no...o.k.
                          822   ;
     C571   A2 17         823   	ldx  #errls     ; string too long error
     C573   4C C437       824   	jmp  error
                          825   ;
     C576   4C CACA       826   finin1  jmp  fininl
                          827   ;.end
                          828   

VIC20 BASIC  #901486-04 (C)1981 CBM	CR6502/11 version 20.53.12	4-Nov-87  12:9:18	Page 10
CODE2   VBASIC.SRC

Error Addr  Code          Seq   Source statement

                          830   	.subttl CODE2
            =0200         831   bufofs   =@1000
                          832   
     C579   6C 0304       833   crunch  jmp  (icrnch)
                          834   
     C57C   A6 7A         835   ncrnch  ldx  txtptr
     C57E   A0 04         836   	ldy  #4
     C580   84 0F         837   	sty  dores
     C582   BD 0200       838   kloop   lda  bufofs,x
     C585   10 07         839   	bpl  cmpspc
     C587   C9 FF         840   	cmp  #pi
     C589   F0 3E         841   	beq  stuffh
     C58B   E8            842   	inx
     C58C   D0 F4         843   	bne  kloop
     C58E   C9 20         844   cmpspc  cmp  #' '
     C590   F0 37         845   	beq  stuffh
     C592   85 08         846   	sta  endchr
     C594   C9 22         847   	cmp  #34
     C596   F0 56         848   	beq  strng
     C598   24 0F         849   	bit  dores
     C59A   70 2D         850   	bvs  stuffh
     C59C   C9 3F         851   	cmp  #'?
     C59E   D0 04         852   	bne  kloop1
     C5A0   A9 99         853   	lda  #printk
     C5A2   D0 25         854   	bne  stuffh
     C5A4   C9 30         855   kloop1  cmp  #'0
     C5A6   90 04         856   	bcc  mustcr
     C5A8   C9 3C         857   	cmp  #60
     C5AA   90 1D         858   	bcc  stuffh
     C5AC   84 71         859   mustcr  sty  bufptr
     C5AE   A0 00         860   	ldy  #0
     C5B0   84 0B         861   	sty  count
     C5B2   88            862   	dey
     C5B3   86 7A         863   	stx  txtptr
     C5B5   CA            864   	dex
     C5B6   C8            865   reser   iny
     C5B7   E8            866   	inx
     C5B8   BD 0200       867   rescon  lda  bufofs,x
     C5BB   38            868   	sec
     C5BC   F9 C09E       869   	sbc  reslst,y
     C5BF   F0 F5         870   	beq  reser
     C5C1   C9 80         871   	cmp  #128
     C5C3   D0 30         872   	bne  nthis
     C5C5   05 0B         873   	ora  count
     C5C7   A4 71         874   getbpt  ldy  bufptr
     C5C9   E8            875   stuffh  inx
     C5CA   C8            876   	iny
     C5CB   99 01FB       877   	sta  buf-5,y
     C5CE   B9 01FB       878   	lda  buf-5,y
     C5D1   F0 36         879   	beq  crdone

VIC20 BASIC  #901486-04 (C)1981 CBM	CR6502/11 version 20.53.12	4-Nov-87  12:9:18	Page 10-1
CODE2   VBASIC.SRC

Error Addr  Code          Seq   Source statement

     C5D3   38            880   	sec
     C5D4   E9 3A         881   	sbc  #':
     C5D6   F0 04         882   	beq  colis
     C5D8   C9 49         883   	cmp  #datatk-$3a
     C5DA   D0 02         884   	bne  nodatt
     C5DC   85 0F         885   colis   sta  dores
     C5DE   38            886   nodatt  sec
     C5DF   E9 55         887   	sbc  #remtk-$3a
     C5E1   D0 9F         888   	bne  kloop
     C5E3   85 08         889   	sta  endchr
     C5E5   BD 0200       890   str1    lda  bufofs,x
     C5E8   F0 DF         891   	beq  stuffh
     C5EA   C5 08         892   	cmp  endchr
     C5EC   F0 DB         893   	beq  stuffh
     C5EE   C8            894   strng   iny
     C5EF   99 01FB       895   	sta  buf-5,y
     C5F2   E8            896   	inx
     C5F3   D0 F0         897   	bne  str1
     C5F5   A6 7A         898   nthis   ldx  txtptr
     C5F7   E6 0B         899   	inc  count
     C5F9   C8            900   nthis1  iny
     C5FA   B9 C09D       901   	lda  reslst-1,y
     C5FD   10 FA         902   	bpl  nthis1
     C5FF   B9 C09E       903   	lda  reslst,y
     C602   D0 B4         904   	bne  rescon
     C604   BD 0200       905   	lda  bufofs,x
     C607   10 BE         906   	bpl  getbpt
     C609   99 01FD       907   crdone  sta  buf-3,y
     C60C   C6 7B         908   	dec  txtptr+1
                          909   
            =01FF         910   zz1	= buf-1
                          911   
     C60E   A9 FF         912   	lda  #<zz1
     C610   85 7A         913   	sta  txtptr
     C612   60            914   	rts
                          915   
     C613   A5 2B         916   fndlin  lda  txttab
     C615   A6 2C         917   	ldx  txttab+1
     C617   A0 01         918   fndlnc  ldy  #1
     C619   85 5F         919   	sta  lowtr
     C61B   86 60         920   	stx  lowtr+1
     C61D   B1 5F         921   	lda  (lowtr),y
     C61F   F0 1F         922   	beq  flinrt
     C621   C8            923   	iny
     C622   C8            924   	iny
     C623   A5 15         925   	lda  linnum+1
     C625   D1 5F         926   	cmp  (lowtr),y
     C627   90 18         927   	bcc  flnrts
     C629   F0 03         928   	beq  fndlo1
     C62B   88            929   	dey

VIC20 BASIC  #901486-04 (C)1981 CBM	CR6502/11 version 20.53.12	4-Nov-87  12:9:18	Page 10-2
CODE2   VBASIC.SRC

Error Addr  Code          Seq   Source statement

     C62C   D0 09         930   	bne  affrts
     C62E   A5 14         931   fndlo1  lda  linnum
     C630   88            932   	dey
     C631   D1 5F         933   	cmp  (lowtr),y
     C633   90 0C         934   	bcc  flnrts
     C635   F0 0A         935   	beq  flnrts
     C637   88            936   affrts  dey
     C638   B1 5F         937   	lda  (lowtr),y
     C63A   AA            938   	tax
     C63B   88            939   	dey
     C63C   B1 5F         940   	lda  (lowtr),y
     C63E   B0 D7         941   	bcs  fndlnc
     C640   18            942   flinrt  clc
     C641   60            943   flnrts  rts
                          944   
     C642   D0 FD         945   scrath  bne  flnrts
     C644   A9 00         946   scrtch  lda  #0
     C646   A8            947   	tay
     C647   91 2B         948   	sta  (txttab),y
     C649   C8            949   	iny
     C64A   91 2B         950   	sta  (txttab),y
     C64C   A5 2B         951   	lda  txttab
     C64E   18            952   	clc
     C64F   69 02         953   	adc  #2
     C651   85 2D         954   	sta  vartab
     C653   A5 2C         955   	lda  txttab+1
     C655   69 00         956   	adc  #0
     C657   85 2E         957   	sta  vartab+1
                          958   
     C659   20 C68E       959   runc    jsr  stxtpt
     C65C   A9 00         960   	lda  #0
                          961   
     C65E   D0 2D         962   clear   bne  stkrts
     C660   20 FFE7       963   clearc  jsr  ccall      ; moved for v2 orig for rs-232
     C663   A5 37         964   cleart  lda  memsiz     ; entry for open & close memsiz changes
     C665   A4 38         965   	ldy  memsiz+1
     C667   85 33         966   	sta  fretop
     C669   84 34         967   	sty  fretop+1
     C66B   A5 2D         968   	lda  vartab
     C66D   A4 2E         969   	ldy  vartab+1
     C66F   85 2F         970   	sta  arytab
     C671   84 30         971   	sty  arytab+1
     C673   85 31         972   	sta  strend
     C675   84 32         973   	sty  strend+1
                          974   
     C677   20 C81D       975   fload   jsr  restor
                          976   
     C67A   A2 19         977   stkini  ldx  #tempst
     C67C   86 16         978   	stx  temppt
     C67E   68            979   	pla

VIC20 BASIC  #901486-04 (C)1981 CBM	CR6502/11 version 20.53.12	4-Nov-87  12:9:18	Page 10-3
CODE2   VBASIC.SRC

Error Addr  Code          Seq   Source statement

     C67F   A8            980   	tay
     C680   68            981   	pla
     C681   A2 FA         982   	ldx  #stkend-257
     C683   9A            983   	txs
     C684   48            984   	pha
     C685   98            985   	tya
     C686   48            986   	pha
     C687   A9 00         987   	lda  #0
     C689   85 3E         988   	sta  oldtxt+1
     C68B   85 10         989   	sta  subflg
     C68D   60            990   stkrts  rts
                          991   
     C68E   18            992   stxtpt  clc
     C68F   A5 2B         993   	lda  txttab
     C691   69 FF         994   	adc  #255
     C693   85 7A         995   	sta  txtptr
     C695   A5 2C         996   	lda  txttab+1
     C697   69 FF         997   	adc  #255
     C699   85 7B         998   	sta  txtptr+1
     C69B   60            999   	rts
                         1000   ;.end
                         1001   

VIC20 BASIC  #901486-04 (C)1981 CBM	CR6502/11 version 20.53.12	4-Nov-87  12:9:18	Page 11
CODE3   VBASIC.SRC

Error Addr  Code          Seq   Source statement

                         1003   	.subttl CODE3
     C69C   90 06        1004   list    bcc  golst
     C69E   F0 04        1005   	beq  golst
     C6A0   C9 AB        1006   	cmp  #minutk
     C6A2   D0 E9        1007   	bne  stkrts
     C6A4   20 C96B      1008   golst   jsr  linget
     C6A7   20 C613      1009   	jsr  fndlin
     C6AA   20 0079      1010   	jsr  chrgot
     C6AD   F0 0C        1011   	beq  lstend
     C6AF   C9 AB        1012   	cmp  #minutk
     C6B1   D0 8E        1013   	bne  flnrts
     C6B3   20 0073      1014   	jsr  chrget
     C6B6   20 C96B      1015   	jsr  linget
     C6B9   D0 86        1016   	bne  flnrts
     C6BB   68           1017   lstend  pla
     C6BC   68           1018   	pla
     C6BD   A5 14        1019   	lda  linnum
     C6BF   05 15        1020   	ora  linnum+1
     C6C1   D0 06        1021   	bne  list4
     C6C3   A9 FF        1022   	lda  #255
     C6C5   85 14        1023   	sta  linnum
     C6C7   85 15        1024   	sta  linnum+1
     C6C9   A0 01        1025   list4   ldy  #1
     C6CB   84 0F        1026   	sty  dores
     C6CD   B1 5F        1027   	lda  (lowtr),y
     C6CF   F0 43        1028   	beq  grody
     C6D1   20 C82C      1029   	jsr  iscntc
     C6D4   20 CAD7      1030   	jsr  crdo
     C6D7   C8           1031   	iny
     C6D8   B1 5F        1032   	lda  (lowtr),y
     C6DA   AA           1033   	tax
     C6DB   C8           1034   	iny
     C6DC   B1 5F        1035   	lda  (lowtr),y
     C6DE   C5 15        1036   	cmp  linnum+1
     C6E0   D0 04        1037   	bne  tstdun
     C6E2   E4 14        1038   	cpx  linnum
     C6E4   F0 02        1039   	beq  typlin
     C6E6   B0 2C        1040   tstdun  bcs  grody
     C6E8   84 49        1041   typlin  sty  lstpnt
     C6EA   20 DDCD      1042   	jsr  linprt
     C6ED   A9 20        1043   	lda  #' '
     C6EF   A4 49        1044   prit4   ldy  lstpnt
     C6F1   29 7F        1045   	and  #127
     C6F3   20 CB47      1046   ploop   jsr  outdo
     C6F6   C9 22        1047   	cmp  #34
     C6F8   D0 06        1048   	bne  ploop1
     C6FA   A5 0F        1049   	lda  dores
     C6FC   49 FF        1050   	eor  #@377
     C6FE   85 0F        1051   	sta  dores
     C700   C8           1052   ploop1  iny

VIC20 BASIC  #901486-04 (C)1981 CBM	CR6502/11 version 20.53.12	4-Nov-87  12:9:18	Page 11-1
CODE3   VBASIC.SRC

Error Addr  Code          Seq   Source statement

     C701   F0 11        1053   	beq  grody
     C703   B1 5F        1054   	lda  (lowtr),y
     C705   D0 10        1055   	bne  qplop
     C707   A8           1056   	tay
     C708   B1 5F        1057   	lda  (lowtr),y
     C70A   AA           1058   	tax
     C70B   C8           1059   	iny
     C70C   B1 5F        1060   	lda  (lowtr),y
     C70E   86 5F        1061   	stx  lowtr
     C710   85 60        1062   	sta  lowtr+1
     C712   D0 B5        1063   	bne  list4
     C714   4C C474      1064   grody   jmp  ready
                         1065   
     C717   6C 0306      1066   qplop   jmp  (iqplop)
                         1067   
     C71A   10 D7        1068   nqplop  bpl  ploop
     C71C   C9 FF        1069   	cmp  #pi
     C71E   F0 D3        1070   	beq  ploop
     C720   24 0F        1071   	bit  dores
     C722   30 CF        1072   	bmi  ploop
     C724   38           1073   	sec
     C725   E9 7F        1074   	sbc  #127
     C727   AA           1075   	tax
     C728   84 49        1076   	sty  lstpnt
     C72A   A0 FF        1077   	ldy  #255
     C72C   CA           1078   resrch  dex
     C72D   F0 08        1079   	beq  prit3
     C72F   C8           1080   rescr1  iny
     C730   B9 C09E      1081   	lda  reslst,y
     C733   10 FA        1082   	bpl  rescr1
     C735   30 F5        1083   	bmi  resrch
     C737   C8           1084   prit3   iny
     C738   B9 C09E      1085   	lda  reslst,y
     C73B   30 B2        1086   	bmi  prit4
     C73D   20 CB47      1087   	jsr  outdo
     C740   D0 F5        1088   	bne  prit3
     C742   A9 80        1089   for     lda  #128
     C744   85 10        1090   	sta  subflg
     C746   20 C9A5      1091   	jsr  let
     C749   20 C38A      1092   	jsr  fndfor
     C74C   D0 05        1093   	bne  notol
     C74E   8A           1094   	txa
     C74F   69 0F        1095   	adc  #forsiz-3
     C751   AA           1096   	tax
     C752   9A           1097   	txs
     C753   68           1098   notol   pla
     C754   68           1099   	pla
     C755   A9 09        1100   	lda  #8+addprc
     C757   20 C3FB      1101   	jsr  getstk
     C75A   20 C906      1102   	jsr  datan

VIC20 BASIC  #901486-04 (C)1981 CBM	CR6502/11 version 20.53.12	4-Nov-87  12:9:18	Page 11-2
CODE3   VBASIC.SRC

Error Addr  Code          Seq   Source statement

     C75D   18           1103   	clc
     C75E   98           1104   	tya
     C75F   65 7A        1105   	adc  txtptr
     C761   48           1106   	pha
     C762   A5 7B        1107   	lda  txtptr+1
     C764   69 00        1108   	adc  #0
     C766   48           1109   	pha
     C767   A5 3A        1110   	lda  curlin+1
     C769   48           1111   	pha
     C76A   A5 39        1112   	lda  curlin
     C76C   48           1113   	pha
     C76D   A9 A4        1114   	lda  #totk
     C76F   20 CEFF      1115   	jsr  synchr
     C772   20 CD8D      1116   	jsr  chknum
     C775   20 CD8A      1117   	jsr  frmnum
     C778   A5 66        1118   	lda  facsgn
     C77A   09 7F        1119   	ora  #127
     C77C   25 62        1120   	and  facho
     C77E   85 62        1121   	sta  facho
     C780   A9 8B        1122   	lda  #<ldfone
     C782   A0 C7        1123   	ldy  #>ldfone
     C784   85 22        1124   	sta  index1
     C786   84 23        1125   	sty  index1+1
     C788   4C CE43      1126   	jmp  forpsh
                         1127   
     C78B   A9 BC        1128   ldfone  lda  #<fone
     C78D   A0 D9        1129   	ldy  #>fone
     C78F   20 DBA2      1130   	jsr  movfm
     C792   20 0079      1131   	jsr  chrgot
     C795   C9 A9        1132   	cmp  #steptk
     C797   D0 06        1133   	bne  oneon
     C799   20 0073      1134   	jsr  chrget
     C79C   20 CD8A      1135   	jsr  frmnum
     C79F   20 DC2B      1136   oneon   jsr  sign
     C7A2   20 CE38      1137   	jsr  pushf
     C7A5   A5 4A        1138   	lda  forpnt+1
     C7A7   48           1139   	pha
     C7A8   A5 49        1140   	lda  forpnt
     C7AA   48           1141   	pha
     C7AB   A9 81        1142   	lda  #fortk
     C7AD   48           1143   	pha
                         1144   ;.end
                         1145   

VIC20 BASIC  #901486-04 (C)1981 CBM	CR6502/11 version 20.53.12	4-Nov-87  12:9:18	Page 12
CODE4   VBASIC.SRC

Error Addr  Code          Seq   Source statement

                         1147   	.subttl CODE4
     C7AE   20 C82C      1148   newstt  jsr  iscntc
     C7B1   A5 7A        1149   	lda  txtptr
     C7B3   A4 7B        1150   	ldy  txtptr+1
     C7B5   C0 02        1151   	cpy  #bufpag
     C7B7   EA           1152   	nop
     C7B8   F0 04        1153   	beq  dircon
     C7BA   85 3D        1154   	sta  oldtxt
     C7BC   84 3E        1155   	sty  oldtxt+1
     C7BE   A0 00        1156   dircon  ldy  #0
     C7C0   B1 7A        1157   	lda  (txtptr),y
     C7C2   D0 43        1158   	bne  morsts
     C7C4   A0 02        1159   	ldy  #2
     C7C6   B1 7A        1160   	lda  (txtptr),y
     C7C8   18           1161   	clc
     C7C9   D0 03        1162   	bne  dircn1
     C7CB   4C C84B      1163   	jmp  endcon
                         1164   
     C7CE   C8           1165   dircn1  iny
     C7CF   B1 7A        1166   	lda  (txtptr),y
     C7D1   85 39        1167   	sta  curlin
     C7D3   C8           1168   	iny
     C7D4   B1 7A        1169   	lda  (txtptr),y
     C7D6   85 3A        1170   	sta  curlin+1
     C7D8   98           1171   	tya
     C7D9   65 7A        1172   	adc  txtptr
     C7DB   85 7A        1173   	sta  txtptr
     C7DD   90 02        1174   	bcc  gone
     C7DF   E6 7B        1175   	inc  txtptr+1
     C7E1   6C 0308      1176   gone    jmp  (igone)
                         1177   
     C7E4   20 0073      1178   ngone   jsr  chrget
     C7E7   20 C7ED      1179   ngone1  jsr  gone3
     C7EA   4C C7AE      1180   	jmp  newstt
                         1181   
     C7ED   F0 3C        1182   gone3   beq  iscrts
     C7EF   E9 80        1183   gone2   sbc  #endtk
     C7F1   90 11        1184   	bcc  glet
     C7F3   C9 23        1185   	cmp  #scratk-endtk+1
     C7F5   B0 17        1186   	bcs  snerrx
     C7F7   0A           1187   	asl  a
     C7F8   A8           1188   	tay
     C7F9   B9 C00D      1189   	lda  stmdsp+1,y
     C7FC   48           1190   	pha
     C7FD   B9 C00C      1191   	lda  stmdsp,y
     C800   48           1192   	pha
     C801   4C 0073      1193   	jmp  chrget
                         1194   
     C804   4C C9A5      1195   glet    jmp  let
                         1196   

VIC20 BASIC  #901486-04 (C)1981 CBM	CR6502/11 version 20.53.12	4-Nov-87  12:9:18	Page 12-1
CODE4   VBASIC.SRC

Error Addr  Code          Seq   Source statement

     C807   C9 3A        1197   morsts  cmp  #':
     C809   F0 D6        1198   	beq  gone
     C80B   4C CF08      1199   snerr1  jmp  snerr
                         1200   
     C80E   C9 4B        1201   snerrx  cmp  #gotk-endtk
     C810   D0 F9        1202   	bne  snerr1
     C812   20 0073      1203   	jsr  chrget
     C815   A9 A4        1204   	lda  #totk
     C817   20 CEFF      1205   	jsr  synchr
     C81A   4C C8A0      1206   	jmp  goto
                         1207   
     C81D   38           1208   restor  sec
     C81E   A5 2B        1209   	lda  txttab
     C820   E9 01        1210   	sbc  #1
     C822   A4 2C        1211   	ldy  txttab+1
     C824   B0 01        1212   	bcs  resfin
     C826   88           1213   	dey
     C827   85 41        1214   resfin  sta  datptr
     C829   84 42        1215   	sty  datptr+1
     C82B   60           1216   iscrts  rts
                         1217   
     C82C   20 FFE1      1218   iscntc  jsr  $ffe1
     C82F   B0 01        1219   stop    bcs  stopc
     C831   18           1220   end     clc
     C832   D0 3C        1221   stopc   bne  contrt
     C834   A5 7A        1222   	lda  txtptr
     C836   A4 7B        1223   	ldy  txtptr+1
     C838   A6 3A        1224   	ldx  curlin+1
     C83A   E8           1225   	inx
     C83B   F0 0C        1226   	beq  diris
     C83D   85 3D        1227   	sta  oldtxt
     C83F   84 3E        1228   	sty  oldtxt+1
     C841   A5 39        1229   stpend  lda  curlin
     C843   A4 3A        1230   	ldy  curlin+1
     C845   85 3B        1231   	sta  oldlin
     C847   84 3C        1232   	sty  oldlin+1
     C849   68           1233   diris   pla
     C84A   68           1234   	pla
     C84B   A9 81        1235   endcon  lda  #<brktxt
     C84D   A0 C3        1236   	ldy  #>brktxt
     C84F   90 03        1237   	bcc  gordy
     C851   4C C469      1238   	jmp  errfin
                         1239   
     C854   4C C474      1240   gordy   jmp  ready
                         1241   
     C857   D0 17        1242   cont    bne  contrt
     C859   A2 1A        1243   	ldx  #errcn
     C85B   A4 3E        1244   	ldy  oldtxt+1
     C85D   D0 03        1245   	bne  *+5
     C85F   4C C437      1246   	jmp  error

VIC20 BASIC  #901486-04 (C)1981 CBM	CR6502/11 version 20.53.12	4-Nov-87  12:9:18	Page 12-2
CODE4   VBASIC.SRC

Error Addr  Code          Seq   Source statement

                         1247   
     C862   A5 3D        1248   	lda  oldtxt
     C864   85 7A        1249   	sta  txtptr
     C866   84 7B        1250   	sty  txtptr+1
     C868   A5 3B        1251   	lda  oldlin
     C86A   A4 3C        1252   	ldy  oldlin+1
     C86C   85 39        1253   	sta  curlin
     C86E   84 3A        1254   	sty  curlin+1
     C870   60           1255   contrt  rts
                         1256   
     C871   08           1257   run     php
     C872   A9 00        1258   	lda  #0	 ; no kernal messages
     C874   20 FF90      1259   	jsr  setmsg
     C877   28           1260   	plp
     C878   D0 03        1261   	bne  *+5
     C87A   4C C659      1262   	jmp  runc
                         1263   
     C87D   20 C660      1264   	jsr  clearc
     C880   4C C897      1265   	jmp  runc2
                         1266   
     C883   A9 03        1267   gosub   lda  #3
     C885   20 C3FB      1268   	jsr  getstk
     C888   A5 7B        1269   	lda  txtptr+1
     C88A   48           1270   	pha
     C88B   A5 7A        1271   	lda  txtptr
     C88D   48           1272   	pha
     C88E   A5 3A        1273   	lda  curlin+1
     C890   48           1274   	pha
     C891   A5 39        1275   	lda  curlin
     C893   48           1276   	pha
     C894   A9 8D        1277   	lda  #gosutk
     C896   48           1278   	pha
     C897   20 0079      1279   runc2   jsr  chrgot
     C89A   20 C8A0      1280   	jsr  goto
     C89D   4C C7AE      1281   	jmp  newstt
                         1282   
     C8A0   20 C96B      1283   goto    jsr  linget
     C8A3   20 C909      1284   	jsr  remn
     C8A6   38           1285   	sec
     C8A7   A5 39        1286   	lda  curlin
     C8A9   E5 14        1287   	sbc  linnum
     C8AB   A5 3A        1288   	lda  curlin+1
     C8AD   E5 15        1289   	sbc  linnum+1
     C8AF   B0 0B        1290   	bcs  luk4it
     C8B1   98           1291   	tya
     C8B2   38           1292   	sec
     C8B3   65 7A        1293   	adc  txtptr
     C8B5   A6 7B        1294   	ldx  txtptr+1
     C8B7   90 07        1295   	bcc  lukall
     C8B9   E8           1296   	inx

VIC20 BASIC  #901486-04 (C)1981 CBM	CR6502/11 version 20.53.12	4-Nov-87  12:9:18	Page 12-3
CODE4   VBASIC.SRC

Error Addr  Code          Seq   Source statement

     C8BA   B0 04        1297   	bcs  lukall
     C8BC   A5 2B        1298   luk4it  lda  txttab
     C8BE   A6 2C        1299   	ldx  txttab+1
     C8C0   20 C617      1300   lukall  jsr  fndlnc
     C8C3   90 1E        1301   	bcc  userr
     C8C5   A5 5F        1302   	lda  lowtr
     C8C7   E9 01        1303   	sbc  #1
                         1304   ;.end
                         1305   

VIC20 BASIC  #901486-04 (C)1981 CBM	CR6502/11 version 20.53.12	4-Nov-87  12:9:18	Page 13
CODE5   VBASIC.SRC

Error Addr  Code          Seq   Source statement

                         1307   	.subttl CODE5
     C8C9   85 7A        1308   	sta  txtptr
     C8CB   A5 60        1309   	lda  lowtr+1
     C8CD   E9 00        1310   	sbc  #0
     C8CF   85 7B        1311   	sta  txtptr+1
     C8D1   60           1312   gorts   rts
                         1313   
     C8D2   D0 FD        1314   return  bne  gorts
     C8D4   A9 FF        1315   	lda  #255
     C8D6   85 4A        1316   	sta  forpnt+1
     C8D8   20 C38A      1317   	jsr  fndfor
     C8DB   9A           1318   	txs
     C8DC   C9 8D        1319   	cmp  #gosutk
     C8DE   F0 0B        1320   	beq  retu1
     C8E0   A2 0C        1321   	ldx  #errrg
     C8E2   2C           1322   	.byte   $2c
     C8E3   A2 11        1323   userr   ldx  #errus
     C8E5   4C C437      1324   	jmp  error
                         1325   
     C8E8   4C CF08      1326   snerr2  jmp  snerr
                         1327   
     C8EB   68           1328   retu1   pla
     C8EC   68           1329   	pla
     C8ED   85 39        1330   	sta  curlin
     C8EF   68           1331   	pla
     C8F0   85 3A        1332   	sta  curlin+1
     C8F2   68           1333   	pla
     C8F3   85 7A        1334   	sta  txtptr
     C8F5   68           1335   	pla
     C8F6   85 7B        1336   	sta  txtptr+1
     C8F8   20 C906      1337   data    jsr  datan
     C8FB   98           1338   addon   tya
     C8FC   18           1339   	clc
     C8FD   65 7A        1340   	adc  txtptr
     C8FF   85 7A        1341   	sta  txtptr
     C901   90 02        1342   	bcc  remrts
     C903   E6 7B        1343   	inc  txtptr+1
     C905   60           1344   remrts  rts
                         1345   
     C906   A2 3A        1346   datan   ldx  #':
     C908   2C           1347   	.byte   $2c
     C909   A2 00        1348   remn    ldx  #0
     C90B   86 07        1349   	stx  charac
     C90D   A0 00        1350   	ldy  #0
     C90F   84 08        1351   	sty  endchr
     C911   A5 08        1352   exchqt  lda  endchr
     C913   A6 07        1353   	ldx  charac
     C915   85 07        1354   	sta  charac
     C917   86 08        1355   	stx  endchr
     C919   B1 7A        1356   remer   lda  (txtptr),y

VIC20 BASIC  #901486-04 (C)1981 CBM	CR6502/11 version 20.53.12	4-Nov-87  12:9:18	Page 13-1
CODE5   VBASIC.SRC

Error Addr  Code          Seq   Source statement

     C91B   F0 E8        1357   	beq  remrts
     C91D   C5 08        1358   	cmp  endchr
     C91F   F0 E4        1359   	beq  remrts
     C921   C8           1360   	iny
     C922   C9 22        1361   	cmp  #34
     C924   D0 F3        1362   	bne  remer
     C926   F0 E9        1363   	beq  exchqt
     C928   20 CD9E      1364   if      jsr  frmevl
     C92B   20 0079      1365   	jsr  chrgot
     C92E   C9 89        1366   	cmp  #gototk
     C930   F0 05        1367   	beq  okgoto
     C932   A9 A7        1368   	lda  #thentk
     C934   20 CEFF      1369   	jsr  synchr
     C937   A5 61        1370   okgoto  lda  facexp
     C939   D0 05        1371   	bne  docond
     C93B   20 C909      1372   rem     jsr  remn
     C93E   F0 BB        1373   	beq  addon
     C940   20 0079      1374   docond  jsr  chrgot
     C943   B0 03        1375   	bcs  doco
     C945   4C C8A0      1376   	jmp  goto
                         1377   
     C948   4C C7ED      1378   doco    jmp  gone3
                         1379   
     C94B   20 D79E      1380   ongoto  jsr  getbyt
     C94E   48           1381   	pha
     C94F   C9 8D        1382   	cmp  #gosutk
     C951   F0 04        1383   	beq  onglop
     C953   C9 89        1384   snerr3  cmp  #gototk
     C955   D0 91        1385   	bne  snerr2
     C957   C6 65        1386   onglop  dec  faclo
     C959   D0 04        1387   	bne  onglp1
     C95B   68           1388   	pla
     C95C   4C C7EF      1389   	jmp  gone2
                         1390   
     C95F   20 0073      1391   onglp1  jsr  chrget
     C962   20 C96B      1392   	jsr  linget
     C965   C9 2C        1393   	cmp  #44
     C967   F0 EE        1394   	beq  onglop
     C969   68           1395   	pla
     C96A   60           1396   ongrts  rts
                         1397   
     C96B   A2 00        1398   linget  ldx  #0
     C96D   86 14        1399   	stx  linnum
     C96F   86 15        1400   	stx  linnum+1
     C971   B0 F7        1401   morlin  bcs  ongrts
     C973   E9 2F        1402   	sbc  #$2f
     C975   85 07        1403   	sta  charac
     C977   A5 15        1404   	lda  linnum+1
     C979   85 22        1405   	sta  index
     C97B   C9 19        1406   	cmp  #25

VIC20 BASIC  #901486-04 (C)1981 CBM	CR6502/11 version 20.53.12	4-Nov-87  12:9:18	Page 13-2
CODE5   VBASIC.SRC

Error Addr  Code          Seq   Source statement

     C97D   B0 D4        1407   	bcs  snerr3
     C97F   A5 14        1408   	lda  linnum
     C981   0A           1409   	asl  a
     C982   26 22        1410   	rol  index
     C984   0A           1411   	asl  a
     C985   26 22        1412   	rol  index
     C987   65 14        1413   	adc  linnum
     C989   85 14        1414   	sta  linnum
     C98B   A5 22        1415   	lda  index
     C98D   65 15        1416   	adc  linnum+1
     C98F   85 15        1417   	sta  linnum+1
     C991   06 14        1418   	asl  linnum
     C993   26 15        1419   	rol  linnum+1
     C995   A5 14        1420   	lda  linnum
     C997   65 07        1421   	adc  charac
     C999   85 14        1422   	sta  linnum
     C99B   90 02        1423   	bcc  nxtlgc
     C99D   E6 15        1424   	inc  linnum+1
     C99F   20 0073      1425   nxtlgc  jsr  chrget
     C9A2   4C C971      1426   	jmp  morlin
                         1427   
     C9A5   20 D08B      1428   let     jsr  ptrget
     C9A8   85 49        1429   	sta  forpnt
     C9AA   84 4A        1430   	sty  forpnt+1
     C9AC   A9 B2        1431   	lda  #$b2
     C9AE   20 CEFF      1432   	jsr  synchr
     C9B1   A5 0E        1433   	lda  intflg
     C9B3   48           1434   	pha
     C9B4   A5 0D        1435   	lda  valtyp
     C9B6   48           1436   	pha
     C9B7   20 CD9E      1437   	jsr  frmevl
     C9BA   68           1438   	pla
     C9BB   2A           1439   	rol  a
     C9BC   20 CD90      1440   	jsr  chkval
     C9BF   D0 18        1441   	bne  copstr
     C9C1   68           1442   	pla
     C9C2   10 12        1443   qintgr  bpl  copflt
     C9C4   20 DC1B      1444   	jsr  round
     C9C7   20 D1BF      1445   	jsr  ayint
     C9CA   A0 00        1446   	ldy  #0
     C9CC   A5 64        1447   	lda  facmo
     C9CE   91 49        1448   	sta  (forpnt),y
     C9D0   C8           1449   	iny
     C9D1   A5 65        1450   	lda  faclo
     C9D3   91 49        1451   	sta  (forpnt),y
     C9D5   60           1452   	rts
                         1453   
     C9D6   4C DBD0      1454   copflt  jmp  movvf
                         1455   
     C9D9   68           1456   copstr  pla

VIC20 BASIC  #901486-04 (C)1981 CBM	CR6502/11 version 20.53.12	4-Nov-87  12:9:18	Page 13-3
CODE5   VBASIC.SRC

Error Addr  Code          Seq   Source statement

     C9DA   A4 4A        1457   inpcom  ldy  forpnt+1
     C9DC   C0 DF        1458   	cpy  #>zero
     C9DE   D0 4C        1459   	bne  getspt
     C9E0   20 D6A6      1460   	jsr  frefac
     C9E3   C9 06        1461   	cmp  #6
     C9E5   D0 3D        1462   	bne  fcerr2
     C9E7   A0 00        1463   	ldy  #0
     C9E9   84 61        1464   	sty  facexp
     C9EB   84 66        1465   	sty  facsgn
                         1466   ;.end
                         1467   

VIC20 BASIC  #901486-04 (C)1981 CBM	CR6502/11 version 20.53.12	4-Nov-87  12:9:18	Page 14
CODE6   VBASIC.SRC

Error Addr  Code          Seq   Source statement

                         1469   	.subttl CODE6
     C9ED   84 71        1470   timelp  sty  fbufpt
     C9EF   20 CA1D      1471   	jsr  timnum
     C9F2   20 DAE2      1472   	jsr  mul10
     C9F5   E6 71        1473   	inc  fbufpt
     C9F7   A4 71        1474   	ldy  fbufpt
     C9F9   20 CA1D      1475   	jsr  timnum
     C9FC   20 DC0C      1476   	jsr  movaf
     C9FF   AA           1477   	tax
     CA00   F0 05        1478   	beq  noml6
     CA02   E8           1479   	inx
     CA03   8A           1480   	txa
     CA04   20 DAED      1481   	jsr  finml6
     CA07   A4 71        1482   noml6   ldy  fbufpt
     CA09   C8           1483   	iny
     CA0A   C0 06        1484   	cpy  #6
     CA0C   D0 DF        1485   	bne  timelp
     CA0E   20 DAE2      1486   	jsr  mul10
     CA11   20 DC9B      1487   	jsr  qint
     CA14   A6 64        1488   	ldx  facmo
     CA16   A4 63        1489   	ldy  facmoh
     CA18   A5 65        1490   	lda  faclo
     CA1A   4C FFDB      1491   	jmp  settim
                         1492   
     CA1D   B1 22        1493   timnum  lda  (index),y
     CA1F   20 0080      1494   	jsr  qnum
     CA22   90 03        1495   	bcc  gotnum
     CA24   4C D248      1496   fcerr2  jmp  fcerr
                         1497   
     CA27   E9 2F        1498   gotnum  sbc  #$2f
     CA29   4C DD7E      1499   	jmp  finlog
                         1500   
     CA2C   A0 02        1501   getspt  ldy  #2
     CA2E   B1 64        1502   	lda  (facmo),y
     CA30   C5 34        1503   	cmp  fretop+1
     CA32   90 17        1504   	bcc  dntcpy
     CA34   D0 07        1505   	bne  qvaria
     CA36   88           1506   	dey
     CA37   B1 64        1507   	lda  (facmo),y
     CA39   C5 33        1508   	cmp  fretop
     CA3B   90 0E        1509   	bcc  dntcpy
     CA3D   A4 65        1510   qvaria  ldy  faclo
     CA3F   C4 2E        1511   	cpy  vartab+1
     CA41   90 08        1512   	bcc  dntcpy
     CA43   D0 0D        1513   	bne  copy
     CA45   A5 64        1514   	lda  facmo
     CA47   C5 2D        1515   	cmp  vartab
     CA49   B0 07        1516   	bcs  copy
     CA4B   A5 64        1517   dntcpy  lda  facmo
     CA4D   A4 65        1518   	ldy  facmo+1

VIC20 BASIC  #901486-04 (C)1981 CBM	CR6502/11 version 20.53.12	4-Nov-87  12:9:18	Page 14-1
CODE6   VBASIC.SRC

Error Addr  Code          Seq   Source statement

     CA4F   4C CA68      1519   	jmp  copyc
                         1520   
     CA52   A0 00        1521   copy    ldy  #0
     CA54   B1 64        1522   	lda  (facmo),y
     CA56   20 D475      1523   	jsr  strini
     CA59   A5 50        1524   	lda  dscpnt
     CA5B   A4 51        1525   	ldy  dscpnt+1
     CA5D   85 6F        1526   	sta  strng1
     CA5F   84 70        1527   	sty  strng1+1
     CA61   20 D67A      1528   	jsr  movins
     CA64   A9 61        1529   	lda  #<dsctmp
     CA66   A0 00        1530   	ldy  #>dsctmp
     CA68   85 50        1531   copyc   sta  dscpnt
     CA6A   84 51        1532   	sty  dscpnt+1
     CA6C   20 D6DB      1533   	jsr  fretms
     CA6F   A0 00        1534   	ldy  #0
     CA71   B1 50        1535   	lda  (dscpnt),y
     CA73   91 49        1536   	sta  (forpnt),y
     CA75   C8           1537   	iny
     CA76   B1 50        1538   	lda  (dscpnt),y
     CA78   91 49        1539   	sta  (forpnt),y
     CA7A   C8           1540   	iny
     CA7B   B1 50        1541   	lda  (dscpnt),y
     CA7D   91 49        1542   	sta  (forpnt),y
     CA7F   60           1543   	rts
                         1544   
     CA80   20 CA86      1545   printn  jsr  cmd
     CA83   4C CBB5      1546   	jmp  iodone
                         1547   
     CA86   20 D79E      1548   cmd     jsr  getbyt
     CA89   F0 05        1549   	beq  saveit
     CA8B   A9 2C        1550   	lda  #44
     CA8D   20 CEFF      1551   	jsr  synchr
     CA90   08           1552   saveit  php
     CA91   86 13        1553   	stx  channl
     CA93   20 E115      1554   	jsr  coout
     CA96   28           1555   	plp
     CA97   4C CAA0      1556   	jmp  print
                         1557   
     CA9A   20 CB21      1558   strdon  jsr  strprt
     CA9D   20 0079      1559   newchr  jsr  chrgot
     CAA0   F0 35        1560   print   beq  crdo
     CAA2   F0 43        1561   printc  beq  prtrts
     CAA4   C9 A3        1562   	cmp  #tabtk
     CAA6   F0 50        1563   	beq  taber
     CAA8   C9 A6        1564   	cmp  #spctk
     CAAA   18           1565   	clc
     CAAB   F0 4B        1566   	beq  taber
     CAAD   C9 2C        1567   	cmp  #44
     CAAF   F0 37        1568   	beq  comprt

VIC20 BASIC  #901486-04 (C)1981 CBM	CR6502/11 version 20.53.12	4-Nov-87  12:9:18	Page 14-2
CODE6   VBASIC.SRC

Error Addr  Code          Seq   Source statement

     CAB1   C9 3B        1569   	cmp  #59
     CAB3   F0 5E        1570   	beq  notabr
     CAB5   20 CD9E      1571   	jsr  frmevl
     CAB8   24 0D        1572   	bit  valtyp
     CABA   30 DE        1573   	bmi  strdon
     CABC   20 DDDD      1574   	jsr  fout
     CABF   20 D487      1575   	jsr  strlit
     CAC2   20 CB21      1576   	jsr  strprt
     CAC5   20 CB3B      1577   	jsr  outspc
     CAC8   D0 D3        1578   	bne  newchr
     CACA   A9 00        1579   fininl  lda  #0
     CACC   9D 0200      1580   	sta  buf,x
            =01FF        1581   zz5=buf-1
     CACF   A2 FF        1582   	ldx  #<zz5
     CAD1   A0 01        1583   	ldy  #>zz5
     CAD3   A5 13        1584   	lda  channl
     CAD5   D0 10        1585   	bne  prtrts
     CAD7   A9 0D        1586   crdo    lda  #13
     CAD9   20 CB47      1587   	jsr  outdo
     CADC   24 13        1588   	bit  channl
     CADE   10 05        1589   	bpl  crfin
                         1590   ;
     CAE0   A9 0A        1591   	lda  #10
     CAE2   20 CB47      1592   	jsr  outdo
     CAE5   49 FF        1593   crfin   eor  #255
     CAE7   60           1594   prtrts  rts
                         1595   
     CAE8   38           1596   comprt  sec
     CAE9   20 FFF0      1597   	jsr  plot       ; get tab position in x
     CAEC   98           1598   	tya
            =001E        1599   ncmpos   =@36
     CAED   38           1600   	sec
     CAEE   E9 0B        1601   morco1  sbc  #clmwid
     CAF0   B0 FC        1602   	bcs  morco1
     CAF2   49 FF        1603   	eor  #255
     CAF4   69 01        1604   	adc  #1
     CAF6   D0 16        1605   	bne  aspac
     CAF8   08           1606   taber   php
     CAF9   38           1607   	sec
     CAFA   20 FFF0      1608   	jsr  plot       ; read tab position
     CAFD   84 09        1609   	sty  trmpos
     CAFF   20 D79B      1610   	jsr  gtbytc
     CB02   C9 29        1611   	cmp  #41
     CB04   D0 59        1612   	bne  snerr4
     CB06   28           1613   	plp
     CB07   90 06        1614   	bcc  xspac
     CB09   8A           1615   	txa
     CB0A   E5 09        1616   	sbc  trmpos
     CB0C   90 05        1617   	bcc  notabr
     CB0E   AA           1618   aspac   tax

VIC20 BASIC  #901486-04 (C)1981 CBM	CR6502/11 version 20.53.12	4-Nov-87  12:9:18	Page 14-3
CODE6   VBASIC.SRC

Error Addr  Code          Seq   Source statement

     CB0F   E8           1619   xspac   inx
     CB10   CA           1620   xspac2  dex
     CB11   D0 06        1621   	bne  xspac1
     CB13   20 0073      1622   notabr  jsr  chrget
     CB16   4C CAA2      1623   	jmp  printc
                         1624   ;.end
                         1625   

VIC20 BASIC  #901486-04 (C)1981 CBM	CR6502/11 version 20.53.12	4-Nov-87  12:9:18	Page 15
CODE7   VBASIC.SRC

Error Addr  Code          Seq   Source statement

                         1627   	.subttl CODE7
     CB19   20 CB3B      1628   xspac1  jsr  outspc
     CB1C   D0 F2        1629   	bne  xspac2
     CB1E   20 D487      1630   strout  jsr  strlit
     CB21   20 D6A6      1631   strprt  jsr  frefac
     CB24   AA           1632   	tax
     CB25   A0 00        1633   	ldy  #0
     CB27   E8           1634   	inx
     CB28   CA           1635   strpr2  dex
     CB29   F0 BC        1636   	beq  prtrts
     CB2B   B1 22        1637   	lda  (index),y
     CB2D   20 CB47      1638   	jsr  outdo
     CB30   C8           1639   	iny
     CB31   C9 0D        1640   	cmp  #13
     CB33   D0 F3        1641   	bne  strpr2
     CB35   20 CAE5      1642   	jsr  crfin
     CB38   4C CB28      1643   	jmp  strpr2
                         1644   
     CB3B                1645   outspc
     CB3B   A5 13        1646   	lda  channl
     CB3D   F0 03        1647   	beq  crtskp
     CB3F   A9 20        1648   	lda  #' '
     CB41   2C           1649   	.byte   $2c
     CB42   A9 1D        1650   crtskp  lda  #29
     CB44   2C           1651   	.byte   $2c
     CB45   A9 3F        1652   outqst  lda  #'?
     CB47   20 E109      1653   outdo   jsr  outch
     CB4A   29 FF        1654   outrts  and  #255
     CB4C   60           1655   	rts
                         1656   
     CB4D   A5 11        1657   trmnok  lda  inpflg
     CB4F   F0 11        1658   	beq  trmno1
     CB51   30 04        1659   	bmi  getdtl
     CB53   A0 FF        1660   	ldy  #255
     CB55   D0 04        1661   	bne  stcurl
     CB57   A5 3F        1662   getdtl  lda  datlin
     CB59   A4 40        1663   	ldy  datlin+1
     CB5B   85 39        1664   stcurl  sta  curlin
     CB5D   84 3A        1665   	sty  curlin+1
     CB5F   4C CF08      1666   snerr4  jmp  snerr
                         1667   
     CB62   A5 13        1668   trmno1  lda  channl
     CB64   F0 05        1669   	beq  doagin
     CB66   A2 18        1670   	ldx  #errbd
     CB68   4C C437      1671   	jmp  error
                         1672   
     CB6B   A9 0C        1673   doagin  lda  #<tryagn
     CB6D   A0 CD        1674   	ldy  #>tryagn
     CB6F   20 CB1E      1675   	jsr  strout
     CB72   A5 3D        1676   	lda  oldtxt

VIC20 BASIC  #901486-04 (C)1981 CBM	CR6502/11 version 20.53.12	4-Nov-87  12:9:18	Page 15-1
CODE7   VBASIC.SRC

Error Addr  Code          Seq   Source statement

     CB74   A4 3E        1677   	ldy  oldtxt+1
     CB76   85 7A        1678   	sta  txtptr
     CB78   84 7B        1679   	sty  txtptr+1
     CB7A   60           1680   	rts
                         1681   
     CB7B   20 D3A6      1682   get     jsr  errdir
     CB7E   C9 23        1683   	cmp  #'#
     CB80   D0 10        1684   	bne  gettty
     CB82   20 0073      1685   	jsr  chrget
     CB85   20 D79E      1686   	jsr  getbyt
     CB88   A9 2C        1687   	lda  #44
     CB8A   20 CEFF      1688   	jsr  synchr
     CB8D   86 13        1689   	stx  channl
     CB8F   20 E11B      1690   	jsr  coin
            =0201        1691   zz2=buf+1
     CB92   A2 01        1692   gettty  ldx  #<zz2
            =0202        1693   zz3=buf+2
     CB94   A0 02        1694   	ldy  #>zz3
     CB96   A9 00        1695   	lda  #0
     CB98   8D 0201      1696   	sta  buf+1
     CB9B   A9 40        1697   	lda  #64
     CB9D   20 CC0F      1698   	jsr  inpco1
     CBA0   A6 13        1699   	ldx  channl
     CBA2   D0 13        1700   	bne  iorele
     CBA4   60           1701   	rts
                         1702   
     CBA5   20 D79E      1703   inputn  jsr  getbyt
     CBA8   A9 2C        1704   	lda  #44
     CBAA   20 CEFF      1705   	jsr  synchr
     CBAD   86 13        1706   	stx  channl
     CBAF   20 E11B      1707   	jsr  coin
     CBB2   20 CBCE      1708   	jsr  notqti
     CBB5   A5 13        1709   iodone  lda  channl
     CBB7   20 FFCC      1710   iorele  jsr  clschn
     CBBA   A2 00        1711   	ldx  #0
     CBBC   86 13        1712   	stx  channl
     CBBE   60           1713   	rts
                         1714   
     CBBF   C9 22        1715   input   cmp  #34
     CBC1   D0 0B        1716   	bne  notqti
     CBC3   20 CEBD      1717   	jsr  strtxt
     CBC6   A9 3B        1718   	lda  #59
     CBC8   20 CEFF      1719   	jsr  synchr
     CBCB   20 CB21      1720   	jsr  strprt
     CBCE   20 D3A6      1721   notqti  jsr  errdir
     CBD1   A9 2C        1722   	lda  #44
     CBD3   8D 01FF      1723   	sta  buf-1
     CBD6   20 CBF9      1724   getagn  jsr  qinlin
     CBD9   A5 13        1725   	lda  channl
     CBDB   F0 0D        1726   	beq  bufful

VIC20 BASIC  #901486-04 (C)1981 CBM	CR6502/11 version 20.53.12	4-Nov-87  12:9:18	Page 15-2
CODE7   VBASIC.SRC

Error Addr  Code          Seq   Source statement

     CBDD   20 FFB7      1727   	jsr  readst
     CBE0   29 02        1728   	and  #2
     CBE2   F0 06        1729   	beq  bufful
     CBE4   20 CBB5      1730   	jsr  iodone
     CBE7   4C C8F8      1731   	jmp  data
                         1732   
     CBEA   AD 0200      1733   bufful  lda  buf
     CBED   D0 1E        1734   	bne  inpcon
     CBEF   A5 13        1735   	lda  channl
     CBF1   D0 E3        1736   	bne  getagn
     CBF3   20 C906      1737   	jsr  datan
     CBF6   4C C8FB      1738   	jmp  addon
                         1739   
     CBF9   A5 13        1740   qinlin  lda  channl
     CBFB   D0 06        1741   	bne  ginlin
     CBFD   20 CB45      1742   	jsr  outqst
     CC00   20 CB3B      1743   	jsr  outspc
     CC03   4C C560      1744   ginlin  jmp  inlin
                         1745   
     CC06   A6 41        1746   read    ldx  datptr
     CC08   A4 42        1747   	ldy  datptr+1
     CC0A   A9           1748   	.byte   $a9
     CC0B   98           1749   	tya
     CC0C   2C           1750   	.byte   $2c
     CC0D   A9 00        1751   inpcon  lda  #0
     CC0F   85 11        1752   inpco1  sta  inpflg
     CC11   86 43        1753   	stx  inpptr
     CC13   84 44        1754   	sty  inpptr+1
     CC15   20 D08B      1755   inloop  jsr  ptrget
     CC18   85 49        1756   	sta  forpnt
     CC1A   84 4A        1757   	sty  forpnt+1
     CC1C   A5 7A        1758   	lda  txtptr
     CC1E   A4 7B        1759   	ldy  txtptr+1
     CC20   85 4B        1760   	sta  vartxt
     CC22   84 4C        1761   	sty  vartxt+1
     CC24   A6 43        1762   	ldx  inpptr
     CC26   A4 44        1763   	ldy  inpptr+1
     CC28   86 7A        1764   	stx  txtptr
     CC2A   84 7B        1765   	sty  txtptr+1
     CC2C   20 0079      1766   	jsr  chrgot
     CC2F   D0 20        1767   	bne  datbk1
     CC31   24 11        1768   	bit  inpflg
     CC33   50 0C        1769   	bvc  qdata
     CC35   20 E121      1770   	jsr  cgetl
     CC38   8D 0200      1771   	sta  buf
            =01FF        1772   zz4=buf-1
     CC3B   A2 FF        1773   	ldx  #<zz4
     CC3D   A0 01        1774   	ldy  #>zz4
     CC3F   D0 0C        1775   	bne  datbk
     CC41   30 75        1776   qdata   bmi  datlop

VIC20 BASIC  #901486-04 (C)1981 CBM	CR6502/11 version 20.53.12	4-Nov-87  12:9:18	Page 15-3
CODE7   VBASIC.SRC

Error Addr  Code          Seq   Source statement

     CC43   A5 13        1777   	lda  channl
     CC45   D0 03        1778   	bne  getnth
     CC47   20 CB45      1779   	jsr  outqst
     CC4A   20 CBF9      1780   getnth  jsr  qinlin
     CC4D   86 7A        1781   datbk   stx  txtptr
     CC4F   84 7B        1782   	sty  txtptr+1
                         1783   ;.end
                         1784   

VIC20 BASIC  #901486-04 (C)1981 CBM	CR6502/11 version 20.53.12	4-Nov-87  12:9:18	Page 16
CODE8   VBASIC.SRC

Error Addr  Code          Seq   Source statement

                         1786   	.subttl CODE8
     CC51   20 0073      1787   datbk1  jsr  chrget
     CC54   24 0D        1788   	bit  valtyp
     CC56   10 31        1789   	bpl  numins
     CC58   24 11        1790   	bit  inpflg
     CC5A   50 09        1791   	bvc  setqut
     CC5C   E8           1792   	inx
     CC5D   86 7A        1793   	stx  txtptr
     CC5F   A9 00        1794   	lda  #0
     CC61   85 07        1795   	sta  charac
     CC63   F0 0C        1796   	beq  resetc
     CC65   85 07        1797   setqut  sta  charac
     CC67   C9 22        1798   	cmp  #34
     CC69   F0 07        1799   	beq  nowget
     CC6B   A9 3A        1800   	lda  #':
     CC6D   85 07        1801   	sta  charac
     CC6F   A9 2C        1802   	lda  #44
     CC71   18           1803   resetc  clc
     CC72   85 08        1804   nowget  sta  endchr
     CC74   A5 7A        1805   	lda  txtptr
     CC76   A4 7B        1806   	ldy  txtptr+1
     CC78   69 00        1807   	adc  #0
     CC7A   90 01        1808   	bcc  nowge1
     CC7C   C8           1809   	iny
     CC7D   20 D48D      1810   nowge1  jsr  strlt2
     CC80   20 D7E2      1811   	jsr  st2txt
     CC83   20 C9DA      1812   	jsr  inpcom
     CC86   4C CC91      1813   	jmp  strdn2
                         1814   
     CC89   20 DCF3      1815   numins  jsr  fin
     CC8C   A5 0E        1816   	lda  intflg
     CC8E   20 C9C2      1817   	jsr  qintgr
     CC91   20 0079      1818   strdn2  jsr  chrgot
     CC94   F0 07        1819   	beq  trmok
     CC96   C9 2C        1820   	cmp  #44
     CC98   F0 03        1821   	beq  *+5
     CC9A   4C CB4D      1822   	jmp  trmnok
                         1823   
     CC9D   A5 7A        1824   trmok   lda  txtptr
     CC9F   A4 7B        1825   	ldy  txtptr+1
     CCA1   85 43        1826   	sta  inpptr
     CCA3   84 44        1827   	sty  inpptr+1
     CCA5   A5 4B        1828   	lda  vartxt
     CCA7   A4 4C        1829   	ldy  vartxt+1
     CCA9   85 7A        1830   	sta  txtptr
     CCAB   84 7B        1831   	sty  txtptr+1
     CCAD   20 0079      1832   	jsr  chrgot
     CCB0   F0 2D        1833   	beq  varend
     CCB2   20 CEFD      1834   	jsr  chkcom
     CCB5   4C CC15      1835   	jmp  inloop

VIC20 BASIC  #901486-04 (C)1981 CBM	CR6502/11 version 20.53.12	4-Nov-87  12:9:18	Page 16-1
CODE8   VBASIC.SRC

Error Addr  Code          Seq   Source statement

                         1836   
     CCB8   20 C906      1837   datlop  jsr  datan
     CCBB   C8           1838   	iny
     CCBC   AA           1839   	tax
     CCBD   D0 12        1840   	bne  nowlin
     CCBF   A2 0D        1841   	ldx  #errod
     CCC1   C8           1842   	iny
     CCC2   B1 7A        1843   	lda  (txtptr),y
     CCC4   F0 6C        1844   	beq  errgo5
     CCC6   C8           1845   	iny
     CCC7   B1 7A        1846   	lda  (txtptr),y
     CCC9   85 3F        1847   	sta  datlin
     CCCB   C8           1848   	iny
     CCCC   B1 7A        1849   	lda  (txtptr),y
     CCCE   C8           1850   	iny
     CCCF   85 40        1851   	sta  datlin+1
     CCD1   20 C8FB      1852   nowlin  jsr  addon      ; txtptr+.y
     CCD4   20 0079      1853   	jsr  chrgot     ; span blanks
     CCD7   AA           1854   	tax     ; used later
     CCD8   E0 83        1855   	cpx  #datatk
     CCDA   D0 DC        1856   	bne  datlop
     CCDC   4C CC51      1857   	jmp  datbk1
                         1858   
     CCDF   A5 43        1859   varend  lda  inpptr
     CCE1   A4 44        1860   	ldy  inpptr+1
     CCE3   A6 11        1861   	ldx  inpflg
     CCE5   10 03        1862   	bpl  vary0
     CCE7   4C C827      1863   	jmp  resfin
                         1864   
     CCEA   A0 00        1865   vary0   ldy  #0
     CCEC   B1 43        1866   	lda  (inpptr),y
     CCEE   F0 0B        1867   	beq  inprts
     CCF0   A5 13        1868   	lda  channl
     CCF2   D0 07        1869   	bne  inprts
     CCF4   A9 FC        1870   	lda  #<exignt
     CCF6   A0 CC        1871   	ldy  #>exignt
     CCF8   4C CB1E      1872   	jmp  strout
                         1873   
     CCFB   60           1874   inprts  rts
                         1875   
     CCFC   3F 45 58     1876   EXIGNT   .BYTE  '?EXTRA IGNORED'
     CCFF   54 52 41            
     CD02   20 49 47            
     CD05   4E 4F 52            
     CD08   45 44               
     CD0A   0D           1877   	.BYTE   $D
     CD0B   00           1878   	.BYTE   0
     CD0C   3F 52 45     1879   TRYAGN   .BYTE  '?REDO FROM START'
     CD0F   44 4F 20            
     CD12   46 52 4F            

VIC20 BASIC  #901486-04 (C)1981 CBM	CR6502/11 version 20.53.12	4-Nov-87  12:9:18	Page 16-2
CODE8   VBASIC.SRC

Error Addr  Code          Seq   Source statement

     CD15   4D 20 53            
     CD18   54 41 52            
     CD1B   54                  
     CD1C   0D           1880   	.BYTE   $D
     CD1D   00           1881   	.BYTE   0
                         1882   
     CD1E   D0 04        1883   next    bne  getfor
     CD20   A0 00        1884   	ldy  #0
     CD22   F0 03        1885   	beq  stxfor
     CD24   20 D08B      1886   getfor  jsr  ptrget
     CD27   85 49        1887   stxfor  sta  forpnt
     CD29   84 4A        1888   	sty  forpnt+1
     CD2B   20 C38A      1889   	jsr  fndfor
     CD2E   F0 05        1890   	beq  havfor
     CD30   A2 0A        1891   	ldx  #errnf
     CD32   4C C437      1892   errgo5  jmp  error      ; change
                         1893   
     CD35   9A           1894   havfor  txs
     CD36   8A           1895   	txa
     CD37   18           1896   	clc
     CD38   69 04        1897   	adc  #4
     CD3A   48           1898   	pha
     CD3B   69 06        1899   	adc  #5+addprc
     CD3D   85 24        1900   	sta  index2
     CD3F   68           1901   	pla
     CD40   A0 01        1902   	ldy  #1
     CD42   20 DBA2      1903   	jsr  movfm
     CD45   BA           1904   	tsx
     CD46   BD 0109      1905   	lda  addprc+264,x
     CD49   85 66        1906   	sta  facsgn
     CD4B   A5 49        1907   	lda  forpnt
     CD4D   A4 4A        1908   	ldy  forpnt+1
     CD4F   20 D867      1909   	jsr  fadd
     CD52   20 DBD0      1910   	jsr  movvf
     CD55   A0 01        1911   	ldy  #1
     CD57   20 DC5D      1912   	jsr  fcompn
     CD5A   BA           1913   	tsx
     CD5B   38           1914   	sec
     CD5C   FD 0109      1915   	sbc  addprc+264,x
     CD5F   F0 17        1916   	beq  loopdn
     CD61   BD 010F      1917   	lda  269+addprc+addprc,x
     CD64   85 39        1918   	sta  curlin
     CD66   BD 0110      1919   	lda  270+addprc+addprc,x
     CD69   85 3A        1920   	sta  curlin+1
     CD6B   BD 0112      1921   	lda  272+addprc+addprc,x
     CD6E   85 7A        1922   	sta  txtptr
     CD70   BD 0111      1923   	lda  271+addprc+addprc,x
     CD73   85 7B        1924   	sta  txtptr+1
     CD75   4C C7AE      1925   newsgo  jmp  newstt
                         1926   

VIC20 BASIC  #901486-04 (C)1981 CBM	CR6502/11 version 20.53.12	4-Nov-87  12:9:18	Page 16-3
CODE8   VBASIC.SRC

Error Addr  Code          Seq   Source statement

     CD78   8A           1927   loopdn  txa
     CD79   69 11        1928   	adc  #15+addprc+addprc
     CD7B   AA           1929   	tax
     CD7C   9A           1930   	txs
     CD7D   20 0079      1931   	jsr  chrgot
     CD80   C9 2C        1932   	cmp  #44
     CD82   D0 F1        1933   	bne  newsgo
     CD84   20 0073      1934   	jsr  chrget
     CD87   20 CD24      1935   	jsr  getfor
     CD8A   20 CD9E      1936   frmnum  jsr  frmevl
     CD8D   18           1937   chknum  clc
     CD8E   24           1938   	.byte   $24
     CD8F   38           1939   chkstr  sec
     CD90   24 0D        1940   chkval  bit  valtyp
                         1941   ;.end
                         1942   

VIC20 BASIC  #901486-04 (C)1981 CBM	CR6502/11 version 20.53.12	4-Nov-87  12:9:18	Page 17
CODE9   VBASIC.SRC

Error Addr  Code          Seq   Source statement

                         1944   	.subttl CODE9
     CD92   30 03        1945   	bmi  docstr
     CD94   B0 03        1946   	bcs  chkerr
     CD96   60           1947   chkok   rts
                         1948   
     CD97   B0 FD        1949   docstr  bcs  chkok
     CD99   A2 16        1950   chkerr  ldx  #errtm
     CD9B   4C C437      1951   errgo4  jmp  error
                         1952   
     CD9E   A6 7A        1953   frmevl  ldx  txtptr
     CDA0   D0 02        1954   	bne  frmev1
     CDA2   C6 7B        1955   	dec  txtptr+1
     CDA4   C6 7A        1956   frmev1  dec  txtptr
     CDA6   A2 00        1957   	ldx  #0
     CDA8   24           1958   	.byte   $24
     CDA9   48           1959   lpoper  pha
     CDAA   8A           1960   	txa
     CDAB   48           1961   	pha
     CDAC   A9 01        1962   	lda  #1
     CDAE   20 C3FB      1963   	jsr  getstk
     CDB1   20 CE83      1964   	jsr  eval
     CDB4   A9 00        1965   	lda  #0
     CDB6   85 4D        1966   	sta  opmask
     CDB8   20 0079      1967   tstop   jsr  chrgot
     CDBB   38           1968   loprel  sec
     CDBC   E9 B1        1969   	sbc  #greatk
     CDBE   90 17        1970   	bcc  endrel
     CDC0   C9 03        1971   	cmp  #lesstk-greatk+1
     CDC2   B0 13        1972   	bcs  endrel
     CDC4   C9 01        1973   	cmp  #1
     CDC6   2A           1974   	rol  a
     CDC7   49 01        1975   	eor  #1
     CDC9   45 4D        1976   	eor  opmask
     CDCB   C5 4D        1977   	cmp  opmask
     CDCD   90 61        1978   	bcc  snerr5
     CDCF   85 4D        1979   	sta  opmask
     CDD1   20 0073      1980   	jsr  chrget
     CDD4   4C CDBB      1981   	jmp  loprel
                         1982   
     CDD7   A6 4D        1983   endrel  ldx  opmask
     CDD9   D0 2C        1984   	bne  finrel
     CDDB   B0 7B        1985   	bcs  qop
     CDDD   69 07        1986   	adc  #greatk-plustk
     CDDF   90 77        1987   	bcc  qop
     CDE1   65 0D        1988   	adc  valtyp
     CDE3   D0 03        1989   	bne  *+5
     CDE5   4C D63D      1990   	jmp  cat
                         1991   
     CDE8   69 FF        1992   	adc  #$ff
     CDEA   85 22        1993   	sta  index1

VIC20 BASIC  #901486-04 (C)1981 CBM	CR6502/11 version 20.53.12	4-Nov-87  12:9:18	Page 17-1
CODE9   VBASIC.SRC

Error Addr  Code          Seq   Source statement

     CDEC   0A           1994   	asl  a
     CDED   65 22        1995   	adc  index1
     CDEF   A8           1996   	tay
     CDF0   68           1997   qprec   pla
     CDF1   D9 C080      1998   	cmp  optab,y
     CDF4   B0 67        1999   	bcs  qchnum
     CDF6   20 CD8D      2000   	jsr  chknum
     CDF9   48           2001   doprec  pha
     CDFA   20 CE20      2002   negprc  jsr  dopre1
     CDFD   68           2003   	pla
     CDFE   A4 4B        2004   	ldy  opptr
     CE00   10 17        2005   	bpl  qprec1
     CE02   AA           2006   	tax
     CE03   F0 56        2007   	beq  qopgo
     CE05   D0 5F        2008   	bne  pulstk
     CE07   46 0D        2009   finrel  lsr  valtyp
     CE09   8A           2010   	txa
     CE0A   2A           2011   	rol  a
     CE0B   A6 7A        2012   	ldx  txtptr
     CE0D   D0 02        2013   	bne  finre2
     CE0F   C6 7B        2014   	dec  txtptr+1
     CE11   C6 7A        2015   finre2  dec  txtptr
     CE13   A0 1B        2016   	ldy  #ptdorl-optab
     CE15   85 4D        2017   	sta  opmask
     CE17   D0 D7        2018   	bne  qprec
     CE19   D9 C080      2019   qprec1  cmp  optab,y
     CE1C   B0 48        2020   	bcs  pulstk
     CE1E   90 D9        2021   	bcc  doprec
     CE20   B9 C082      2022   dopre1  lda  optab+2,y
     CE23   48           2023   	pha
     CE24   B9 C081      2024   	lda  optab+1,y
     CE27   48           2025   	pha
     CE28   20 CE33      2026   	jsr  pushf1
     CE2B   A5 4D        2027   	lda  opmask
     CE2D   4C CDA9      2028   	jmp  lpoper
                         2029   
     CE30   4C CF08      2030   snerr5  jmp  snerr
                         2031   
     CE33   A5 66        2032   pushf1  lda  facsgn
     CE35   BE C080      2033   	ldx  optab,y
     CE38   A8           2034   pushf   tay
     CE39   68           2035   	pla
     CE3A   85 22        2036   	sta  index1
     CE3C   E6 22        2037   	inc  index1
     CE3E   68           2038   	pla
     CE3F   85 23        2039   	sta  index1+1
     CE41   98           2040   	tya
     CE42   48           2041   	pha
     CE43   20 DC1B      2042   forpsh  jsr  round
     CE46   A5 65        2043   	lda  faclo

VIC20 BASIC  #901486-04 (C)1981 CBM	CR6502/11 version 20.53.12	4-Nov-87  12:9:18	Page 17-2
CODE9   VBASIC.SRC

Error Addr  Code          Seq   Source statement

     CE48   48           2044   	pha
     CE49   A5 64        2045   	lda  facmo
     CE4B   48           2046   	pha
     CE4C   A5 63        2047   	lda  facmoh
     CE4E   48           2048   	pha
     CE4F   A5 62        2049   	lda  facho
     CE51   48           2050   	pha
     CE52   A5 61        2051   	lda  facexp
     CE54   48           2052   	pha
     CE55   6C 0022      2053   	jmp  (index1)
                         2054   
     CE58   A0 FF        2055   qop     ldy  #255
     CE5A   68           2056   	pla
     CE5B   F0 23        2057   qopgo   beq  qoprts
     CE5D   C9 64        2058   qchnum  cmp  #100
     CE5F   F0 03        2059   	beq  unpstk
     CE61   20 CD8D      2060   	jsr  chknum
     CE64   84 4B        2061   unpstk  sty  opptr
     CE66   68           2062   pulstk  pla
     CE67   4A           2063   	lsr  a
     CE68   85 12        2064   	sta  domask
     CE6A   68           2065   	pla
     CE6B   85 69        2066   	sta  argexp
     CE6D   68           2067   	pla
     CE6E   85 6A        2068   	sta  argho
     CE70   68           2069   	pla
     CE71   85 6B        2070   	sta  argmoh
     CE73   68           2071   	pla
     CE74   85 6C        2072   	sta  argmo
     CE76   68           2073   	pla
     CE77   85 6D        2074   	sta  arglo
     CE79   68           2075   	pla
     CE7A   85 6E        2076   	sta  argsgn
     CE7C   45 66        2077   	eor  facsgn
     CE7E   85 6F        2078   	sta  arisgn
     CE80   A5 61        2079   qoprts  lda  facexp
     CE82   60           2080   unprts  rts
                                
                                
                                
                                
                                
     CE83   6C 030A      2082   eval    jmp  (ieval)
                         2083   
     CE86   A9 00        2084   neval   lda  #0
     CE88   85 0D        2085   	sta  valtyp
     CE8A   20 0073      2086   eval0   jsr  chrget
     CE8D   B0 03        2087   	bcs  eval2
     CE8F   4C DCF3      2088   eval1   jmp  fin
                         2089   

VIC20 BASIC  #901486-04 (C)1981 CBM	CR6502/11 version 20.53.12	4-Nov-87  12:9:18	Page 17-3
CODE9   VBASIC.SRC

Error Addr  Code          Seq   Source statement

     CE92   20 D113      2090   eval2   jsr  isletc
     CE95   90 03        2091   	bcc  *+5
     CE97   4C CF28      2092   	jmp  isvar
                         2093   
     CE9A   C9 FF        2094   	cmp  #pi
     CE9C   D0 0F        2095   	bne  qdot
     CE9E   A9 A8        2096   	lda  #<pival
     CEA0   A0 CE        2097   	ldy  #>pival
     CEA2   20 DBA2      2098   	jsr  movfm
     CEA5   4C 0073      2099   	jmp  chrget
                         2100   
     CEA8   82           2101   pival    .byte  @202
     CEA9   49           2102   	.byte   @111
     CEAA   0F           2103   	.byte   @017
     CEAB   DA           2104   	.byte   @332
     CEAC   A1           2105   	.byte   @241
                         2106   
     CEAD   C9 2E        2107   qdot    cmp  #'.
     CEAF   F0 DE        2108   	beq  eval1
     CEB1   C9 AB        2109   	cmp  #minutk
     CEB3   F0 58        2110   	beq  domin
     CEB5   C9 AA        2111   	cmp  #plustk
     CEB7   F0 D1        2112   	beq  eval0
     CEB9   C9 22        2113   	cmp  #34
     CEBB   D0 0F        2114   	bne  eval3
     CEBD   A5 7A        2115   strtxt  lda  txtptr
     CEBF   A4 7B        2116   	ldy  txtptr+1
     CEC1   69 00        2117   	adc  #0
     CEC3   90 01        2118   	bcc  strtx2
     CEC5   C8           2119   	iny
     CEC6   20 D487      2120   strtx2  jsr  strlit
     CEC9   4C D7E2      2121   	jmp  st2txt
                         2122   
     CECC   C9 A8        2123   eval3   cmp  #nottk
     CECE   D0 13        2124   	bne  eval4
     CED0   A0 18        2125   	ldy  #24
     CED2   D0 3B        2126   	bne  gonprc
     CED4   20 D1BF      2127   notop   jsr  ayint
     CED7   A5 65        2128   	lda  faclo
     CED9   49 FF        2129   	eor  #255
     CEDB   A8           2130   	tay
     CEDC   A5 64        2131   	lda  facmo
     CEDE   49 FF        2132   	eor  #255
     CEE0   4C D391      2133   	jmp  givayf
                         2134   
     CEE3   C9 A5        2135   eval4   cmp  #fntk
     CEE5   D0 03        2136   	bne  *+5
     CEE7   4C D3F4      2137   	jmp  fndoer
                         2138   
     CEEA   C9 B4        2139   	cmp  #onefun

VIC20 BASIC  #901486-04 (C)1981 CBM	CR6502/11 version 20.53.12	4-Nov-87  12:9:18	Page 17-4
CODE9   VBASIC.SRC

Error Addr  Code          Seq   Source statement

     CEEC   90 03        2140   	bcc  parchk
     CEEE   4C CFA7      2141   	jmp  isfun
                         2142   
     CEF1   20 CEFA      2143   parchk  jsr  chkopn
     CEF4   20 CD9E      2144   	jsr  frmevl
     CEF7   A9 29        2145   chkcls  lda  #41
     CEF9   2C           2146   	.byte   $2c
     CEFA   A9 28        2147   chkopn  lda  #40
     CEFC   2C           2148   	.byte   $2c
     CEFD   A9 2C        2149   chkcom  lda  #44
     CEFF   A0 00        2150   synchr  ldy  #0
     CF01   D1 7A        2151   	cmp  (txtptr),y
     CF03   D0 03        2152   	bne  snerr
     CF05   4C 0073      2153   	jmp  chrget
                         2154   
     CF08   A2 0B        2155   snerr   ldx  #errsn
     CF0A   4C C437      2156   	jmp  error
                         2157   
     CF0D   A0 15        2158   domin   ldy  #21
     CF0F   68           2159   gonprc  pla
     CF10   68           2160   	pla
     CF11   4C CDFA      2161   	jmp  negprc
                         2162   ;.end
                         2163   

VIC20 BASIC  #901486-04 (C)1981 CBM	CR6502/11 version 20.53.12	4-Nov-87  12:9:18	Page 18
CODE10   VBASIC.SRC

Error Addr  Code          Seq   Source statement

                         2165   	.subttl CODE10
                         2166   ;test pointer to variable to see
                         2167   ;if constant is contained in basic.
                         2168   ;array variables have zeroes placed
                         2169   ;in ram. undefined simple variables
                         2170   ;have pointer t zero in basic.
                         2171   ;
     CF14   38           2172   tstrom  sec
     CF15   A5 64        2173   	lda  facmo
     CF17   E9 00        2174   	sbc  #<romloc
     CF19   A5 65        2175   	lda  faclo
     CF1B   E9 C0        2176   	sbc  #>romloc
     CF1D   90 08        2177   	bcc  tstr10
                         2178   ;
     CF1F   A9 87        2179   	lda  #<initat
     CF21   E5 64        2180   	sbc  facmo
     CF23   A9 E3        2181   	lda  #>initat
     CF25   E5 65        2182   	sbc  faclo
                         2183   ;
     CF27   60           2184   tstr10  rts
                                
                                
                                
                                
                                
     CF28   20 D08B      2186   isvar   jsr  ptrget
     CF2B   85 64        2187   isvret  sta  facmo
     CF2D   84 65        2188   	sty  facmo+1
     CF2F   A6 45        2189   	ldx  varnam
     CF31   A4 46        2190   	ldy  varnam+1
     CF33   A5 0D        2191   	lda  valtyp
     CF35   F0 26        2192   	beq  gooo
     CF37   A9 00        2193   	lda  #0
     CF39   85 70        2194   	sta  facov
     CF3B   20 CF14      2195   	jsr  tstrom     ; see if an array
     CF3E   90 1C        2196   	bcc  strrts     ; don't test st(i),ti(i)
     CF40   E0 54        2197   	cpx  #'T
     CF42   D0 18        2198   	bne  strrts
     CF44   C0 C9        2199   	cpy  #$c9
     CF46   D0 14        2200   	bne  strrts
     CF48   20 CF84      2201   	jsr  gettim
     CF4B   84 5E        2202   	sty  tenexp
     CF4D   88           2203   	dey
     CF4E   84 71        2204   	sty  fbufpt
     CF50   A0 06        2205   	ldy  #6
     CF52   84 5D        2206   	sty  deccnt
     CF54   A0 24        2207   	ldy  #fdcend-foutbl
     CF56   20 DE68      2208   	jsr  foutim
     CF59   4C D46F      2209   	jmp  timstr
                         2210   

VIC20 BASIC  #901486-04 (C)1981 CBM	CR6502/11 version 20.53.12	4-Nov-87  12:9:18	Page 18-1
CODE10   VBASIC.SRC

Error Addr  Code          Seq   Source statement

     CF5C   60           2211   strrts  rts
                         2212   
     CF5D   24 0E        2213   gooo    bit  intflg
     CF5F   10 0D        2214   	bpl  gooooo
     CF61   A0 00        2215   	ldy  #0
     CF63   B1 64        2216   	lda  (facmo),y
     CF65   AA           2217   	tax
     CF66   C8           2218   	iny
     CF67   B1 64        2219   	lda  (facmo),y
     CF69   A8           2220   	tay
     CF6A   8A           2221   	txa
     CF6B   4C D391      2222   	jmp  givayf
                         2223   
     CF6E   20 CF14      2224   gooooo  jsr  tstrom     ; see if array
     CF71   90 2D        2225   	bcc  gomovf     ; don't test st(i),ti(i)
     CF73   E0 54        2226   	cpx  #'T
     CF75   D0 1B        2227   	bne  qstatv
     CF77   C0 49        2228   	cpy  #'I
     CF79   D0 25        2229   	bne  gomovf
     CF7B   20 CF84      2230   	jsr  gettim
     CF7E   98           2231   	tya
     CF7F   A2 A0        2232   	ldx  #160
     CF81   4C DC4F      2233   	jmp  floatb
                         2234   
     CF84   20 FFDE      2235   gettim  jsr  rdtim
     CF87   86 64        2236   	stx  facmo
     CF89   84 63        2237   	sty  facmoh
     CF8B   85 65        2238   	sta  faclo
     CF8D   A0 00        2239   	ldy  #0
     CF8F   84 62        2240   	sty  facho
     CF91   60           2241   	rts
                         2242   
     CF92   E0 53        2243   qstatv  cpx  #'S
     CF94   D0 0A        2244   	bne  gomovf
     CF96   C0 54        2245   	cpy  #'T
     CF98   D0 06        2246   	bne  gomovf
     CF9A   20 FFB7      2247   	jsr  readst
     CF9D   4C DC3C      2248   	jmp  float
                         2249   
     CFA0   A5 64        2250   gomovf  lda  facmo
     CFA2   A4 65        2251   	ldy  facmo+1
     CFA4   4C DBA2      2252   	jmp  movfm
                         2253   
     CFA7   0A           2254   isfun   asl  a
     CFA8   48           2255   	pha
     CFA9   AA           2256   	tax
     CFAA   20 0073      2257   	jsr  chrget
     CFAD   E0 8F        2258   	cpx  #lasnum+lasnum-255
     CFAF   90 20        2259   	bcc  oknorm
     CFB1   20 CEFA      2260   	jsr  chkopn

VIC20 BASIC  #901486-04 (C)1981 CBM	CR6502/11 version 20.53.12	4-Nov-87  12:9:18	Page 18-2
CODE10   VBASIC.SRC

Error Addr  Code          Seq   Source statement

     CFB4   20 CD9E      2261   	jsr  frmevl
     CFB7   20 CEFD      2262   	jsr  chkcom
     CFBA   20 CD8F      2263   	jsr  chkstr
     CFBD   68           2264   	pla
     CFBE   AA           2265   	tax
     CFBF   A5 65        2266   	lda  facmo+1
     CFC1   48           2267   	pha
     CFC2   A5 64        2268   	lda  facmo
     CFC4   48           2269   	pha
     CFC5   8A           2270   	txa
     CFC6   48           2271   	pha
     CFC7   20 D79E      2272   	jsr  getbyt
     CFCA   68           2273   	pla
     CFCB   A8           2274   	tay
     CFCC   8A           2275   	txa
     CFCD   48           2276   	pha
     CFCE   4C CFD6      2277   	jmp  fingo
                         2278   
     CFD1   20 CEF1      2279   oknorm  jsr  parchk
     CFD4   68           2280   	pla
     CFD5   A8           2281   	tay
     CFD6   B9 BFEA      2282   fingo   lda  fundsp-onefun-onefun+256,y
     CFD9   85 55        2283   	sta  jmper+1
     CFDB   B9 BFEB      2284   	lda  fundsp-onefun-onefun+257,y
     CFDE   85 56        2285   	sta  jmper+2
     CFE0   20 0054      2286   	jsr  jmper
     CFE3   4C CD8D      2287   	jmp  chknum
                         2288   
     CFE6   A0 FF        2289   orop    ldy  #255
     CFE8   2C           2290   	.byte   $2c
     CFE9   A0 00        2291   andop   ldy  #0
     CFEB   84 0B        2292   	sty  count
     CFED   20 D1BF      2293   	jsr  ayint
     CFF0   A5 64        2294   	lda  facmo
     CFF2   45 0B        2295   	eor  count
     CFF4   85 07        2296   	sta  integr
     CFF6   A5 65        2297   	lda  faclo
     CFF8   45 0B        2298   	eor  count
     CFFA   85 08        2299   	sta  integr+1
     CFFC   20 DBFC      2300   	jsr  movfa
     CFFF   20 D1BF      2301   	jsr  ayint
     D002   A5 65        2302   	lda  faclo
     D004   45 0B        2303   	eor  count
     D006   25 08        2304   	and  integr+1
     D008   45 0B        2305   	eor  count
     D00A   A8           2306   	tay
     D00B   A5 64        2307   	lda  facmo
     D00D   45 0B        2308   	eor  count
     D00F   25 07        2309   	and  integr
     D011   45 0B        2310   	eor  count

VIC20 BASIC  #901486-04 (C)1981 CBM	CR6502/11 version 20.53.12	4-Nov-87  12:9:18	Page 18-3
CODE10   VBASIC.SRC

Error Addr  Code          Seq   Source statement

     D013   4C D391      2311   	jmp  givayf
                         2312   
     D016   20 CD90      2313   dorel   jsr  chkval
     D019   B0 13        2314   	bcs  strcmp
     D01B   A5 6E        2315   	lda  argsgn
     D01D   09 7F        2316   	ora  #127
     D01F   25 6A        2317   	and  argho
     D021   85 6A        2318   	sta  argho
     D023   A9 69        2319   	lda  #<argexp
     D025   A0 00        2320   	ldy  #>argexp
     D027   20 DC5B      2321   	jsr  fcomp
     D02A   AA           2322   	tax
     D02B   4C D061      2323   	jmp  qcomp
                         2324   
     D02E   A9 00        2325   strcmp  lda  #0
     D030   85 0D        2326   	sta  valtyp
     D032   C6 4D        2327   	dec  opmask
     D034   20 D6A6      2328   	jsr  frefac
     D037   85 61        2329   	sta  dsctmp
     D039   86 62        2330   	stx  dsctmp+1
     D03B   84 63        2331   	sty  dsctmp+2
     D03D   A5 6C        2332   	lda  argmo
     D03F   A4 6D        2333   	ldy  argmo+1
     D041   20 D6AA      2334   	jsr  fretmp
     D044   86 6C        2335   	stx  argmo
     D046   84 6D        2336   	sty  argmo+1
     D048   AA           2337   	tax
     D049   38           2338   	sec
     D04A   E5 61        2339   	sbc  dsctmp
     D04C   F0 08        2340   	beq  stasgn
     D04E   A9 01        2341   	lda  #1
     D050   90 04        2342   	bcc  stasgn
     D052   A6 61        2343   	ldx  dsctmp
     D054   A9 FF        2344   	lda  #$ff
     D056   85 66        2345   stasgn  sta  facsgn
     D058   A0 FF        2346   	ldy  #255
     D05A   E8           2347   	inx
     D05B   C8           2348   nxtcmp  iny
     D05C   CA           2349   	dex
     D05D   D0 07        2350   	bne  getcmp
     D05F   A6 66        2351   	ldx  facsgn
     D061   30 0F        2352   qcomp   bmi  docmp
     D063   18           2353   	clc
     D064   90 0C        2354   	bcc  docmp
     D066   B1 6C        2355   getcmp  lda  (argmo),y
                         2356   ;.end
                         2357   

VIC20 BASIC  #901486-04 (C)1981 CBM	CR6502/11 version 20.53.12	4-Nov-87  12:9:18	Page 19
CODE11   VBASIC.SRC

Error Addr  Code          Seq   Source statement

                         2359   	.subttl CODE11
     D068   D1 62        2360   	cmp  (dsctmp+1),y
     D06A   F0 EF        2361   	beq  nxtcmp
     D06C   A2 FF        2362   	ldx  #$ff
     D06E   B0 02        2363   	bcs  docmp
     D070   A2 01        2364   	ldx  #1
     D072   E8           2365   docmp   inx
     D073   8A           2366   	txa
     D074   2A           2367   	rol  a
     D075   25 12        2368   	and  domask
     D077   F0 02        2369   	beq  goflot
     D079   A9 FF        2370   	lda  #$ff
     D07B   4C DC3C      2371   goflot  jmp  float
                         2372   
     D07E   20 CEFD      2373   dim3    jsr  chkcom
     D081   AA           2374   dim     tax
     D082   20 D090      2375   	jsr  ptrgt1
     D085   20 0079      2376   	jsr  chrgot
     D088   D0 F4        2377   	bne  dim3
     D08A   60           2378   	rts
                         2379   
     D08B   A2 00        2380   ptrget  ldx  #0
     D08D   20 0079      2381   	jsr  chrgot
     D090   86 0C        2382   ptrgt1  stx  dimflg
     D092   85 45        2383   ptrgt2  sta  varnam
     D094   20 0079      2384   	jsr  chrgot
     D097   20 D113      2385   	jsr  isletc
     D09A   B0 03        2386   	bcs  ptrgt3
     D09C   4C CF08      2387   interr  jmp  snerr
                         2388   
     D09F   A2 00        2389   ptrgt3  ldx  #0
     D0A1   86 0D        2390   	stx  valtyp
     D0A3   86 0E        2391   	stx  intflg
     D0A5   20 0073      2392   	jsr  chrget
     D0A8   90 05        2393   	bcc  issec
     D0AA   20 D113      2394   	jsr  isletc
     D0AD   90 0B        2395   	bcc  nosec
     D0AF   AA           2396   issec   tax
     D0B0   20 0073      2397   eatem   jsr  chrget
     D0B3   90 FB        2398   	bcc  eatem
     D0B5   20 D113      2399   	jsr  isletc
     D0B8   B0 F6        2400   	bcs  eatem
     D0BA   C9 24        2401   nosec   cmp  #'$
     D0BC   D0 06        2402   	bne  notstr
     D0BE   A9 FF        2403   	lda  #$ff
     D0C0   85 0D        2404   	sta  valtyp
     D0C2   D0 10        2405   	bne  turnon
     D0C4   C9 25        2406   notstr  cmp  #'%
     D0C6   D0 13        2407   	bne  strnam
     D0C8   A5 10        2408   	lda  subflg

VIC20 BASIC  #901486-04 (C)1981 CBM	CR6502/11 version 20.53.12	4-Nov-87  12:9:18	Page 19-1
CODE11   VBASIC.SRC

Error Addr  Code          Seq   Source statement

     D0CA   D0 D0        2409   	bne  interr
     D0CC   A9 80        2410   	lda  #128
     D0CE   85 0E        2411   	sta  intflg
     D0D0   05 45        2412   	ora  varnam
     D0D2   85 45        2413   	sta  varnam
     D0D4   8A           2414   turnon  txa
     D0D5   09 80        2415   	ora  #128
     D0D7   AA           2416   	tax
     D0D8   20 0073      2417   	jsr  chrget
     D0DB   86 46        2418   strnam  stx  varnam+1
     D0DD   38           2419   	sec
     D0DE   05 10        2420   	ora  subflg
     D0E0   E9 28        2421   	sbc  #40
     D0E2   D0 03        2422   	bne  *+5
     D0E4   4C D1D1      2423   	jmp  isary
                         2424   
     D0E7   A0 00        2425   	ldy  #0
     D0E9   84 10        2426   	sty  subflg
     D0EB   A5 2D        2427   	lda  vartab
     D0ED   A6 2E        2428   	ldx  vartab+1
     D0EF   86 60        2429   stxfnd  stx  lowtr+1
     D0F1   85 5F        2430   lopfnd  sta  lowtr
     D0F3   E4 30        2431   	cpx  arytab+1
     D0F5   D0 04        2432   	bne  lopfn
     D0F7   C5 2F        2433   	cmp  arytab
     D0F9   F0 22        2434   	beq  notfns
     D0FB   A5 45        2435   lopfn   lda  varnam
     D0FD   D1 5F        2436   	cmp  (lowtr),y
     D0FF   D0 08        2437   	bne  notit
     D101   A5 46        2438   	lda  varnam+1
     D103   C8           2439   	iny
     D104   D1 5F        2440   	cmp  (lowtr),y
     D106   F0 7D        2441   	beq  finptr
     D108   88           2442   	dey
     D109   18           2443   notit   clc
     D10A   A5 5F        2444   	lda  lowtr
     D10C   69 07        2445   	adc  #6+addprc
     D10E   90 E1        2446   	bcc  lopfnd
     D110   E8           2447   	inx
     D111   D0 DC        2448   	bne  stxfnd
     D113   C9 41        2449   isletc  cmp  #'A
     D115   90 05        2450   	bcc  islrts
     D117   E9 5B        2451   	sbc  #$5b
     D119   38           2452   	sec
     D11A   E9 A5        2453   	sbc  #@245
     D11C   60           2454   islrts  rts
                         2455   
     D11D   68           2456   notfns  pla
     D11E   48           2457   	pha
            =CF2A        2458   zz6=isvret-1

VIC20 BASIC  #901486-04 (C)1981 CBM	CR6502/11 version 20.53.12	4-Nov-87  12:9:18	Page 19-2
CODE11   VBASIC.SRC

Error Addr  Code          Seq   Source statement

     D11F   C9 2A        2459   	cmp  #<zz6
     D121   D0 05        2460   	bne  notevl
     D123   A9 13        2461   ldzr    lda  #<zero
     D125   A0 DF        2462   	ldy  #>zero
     D127   60           2463   	rts
                         2464   
     D128   A5 45        2465   notevl  lda  varnam
     D12A   A4 46        2466   	ldy  varnam+1
     D12C   C9 54        2467   	cmp  #'T
     D12E   D0 0B        2468   	bne  qstavr
     D130   C0 C9        2469   	cpy  #@311
     D132   F0 EF        2470   	beq  ldzr
     D134   C0 49        2471   	cpy  #@111
     D136   D0 03        2472   	bne  qstavr
     D138   4C CF08      2473   gobadv  jmp  snerr
                         2474   
     D13B                2475   qstavr
     D13B   C9 53        2476   	cmp  #'S
     D13D   D0 04        2477   	bne  varok
     D13F   C0 54        2478   	cpy  #'T
     D141   F0 F5        2479   	beq  gobadv
     D143   A5 2F        2480   varok   lda  arytab
     D145   A4 30        2481   	ldy  arytab+1
     D147   85 5F        2482   	sta  lowtr
     D149   84 60        2483   	sty  lowtr+1
     D14B   A5 31        2484   	lda  strend
     D14D   A4 32        2485   	ldy  strend+1
     D14F   85 5A        2486   	sta  hightr
     D151   84 5B        2487   	sty  hightr+1
     D153   18           2488   	clc
     D154   69 07        2489   	adc  #6+addprc
     D156   90 01        2490   	bcc  noteve
     D158   C8           2491   	iny
     D159   85 58        2492   noteve  sta  highds
     D15B   84 59        2493   	sty  highds+1
     D15D   20 C3B8      2494   	jsr  bltu
     D160   A5 58        2495   	lda  highds
     D162   A4 59        2496   	ldy  highds+1
     D164   C8           2497   	iny
     D165   85 2F        2498   	sta  arytab
     D167   84 30        2499   	sty  arytab+1
     D169   A0 00        2500   	ldy  #0
     D16B   A5 45        2501   	lda  varnam
     D16D   91 5F        2502   	sta  (lowtr),y
     D16F   C8           2503   	iny
     D170   A5 46        2504   	lda  varnam+1
     D172   91 5F        2505   	sta  (lowtr),y
     D174   A9 00        2506   	lda  #0
     D176   C8           2507   	iny
     D177   91 5F        2508   	sta  (lowtr),y

VIC20 BASIC  #901486-04 (C)1981 CBM	CR6502/11 version 20.53.12	4-Nov-87  12:9:18	Page 19-3
CODE11   VBASIC.SRC

Error Addr  Code          Seq   Source statement

     D179   C8           2509   	iny
     D17A   91 5F        2510   	sta  (lowtr),y
     D17C   C8           2511   	iny
     D17D   91 5F        2512   	sta  (lowtr),y
     D17F   C8           2513   	iny
     D180   91 5F        2514   	sta  (lowtr),y
     D182   C8           2515   	iny
     D183   91 5F        2516   	sta  (lowtr),y
     D185   A5 5F        2517   finptr  lda  lowtr
     D187   18           2518   	clc
     D188   69 02        2519   	adc  #2
     D18A   A4 60        2520   	ldy  lowtr+1
     D18C   90 01        2521   	bcc  finnow
     D18E   C8           2522   	iny
     D18F   85 47        2523   finnow  sta  varpnt
     D191   84 48        2524   	sty  varpnt+1
     D193   60           2525   	rts
                         2526   
     D194   A5 0B        2527   fmaptr  lda  count
     D196   0A           2528   	asl  a
     D197   69 05        2529   	adc  #5
     D199   65 5F        2530   	adc  lowtr
     D19B   A4 60        2531   	ldy  lowtr+1
     D19D   90 01        2532   	bcc  jsrgm
     D19F   C8           2533   	iny
     D1A0   85 58        2534   jsrgm   sta  arypnt
     D1A2   84 59        2535   	sty  arypnt+1
     D1A4   60           2536   	rts
                         2537   ;.end
                         2538   

VIC20 BASIC  #901486-04 (C)1981 CBM	CR6502/11 version 20.53.12	4-Nov-87  12:9:18	Page 20
CODE12   VBASIC.SRC

Error Addr  Code          Seq   Source statement

                         2540   	.subttl CODE12
     D1A5   90 80 00     2541   n32768   .byte  144,128,0,0,0
     D1A8   00 00               
     D1AA   20 D1BF      2542   flpint  jsr  ayint
     D1AD   A5 64        2543   	lda  facmo
     D1AF   A4 65        2544   	ldy  faclo
     D1B1   60           2545   	rts
                         2546   
     D1B2   20 0073      2547   intidx  jsr  chrget
     D1B5   20 CD9E      2548   	jsr  frmevl
     D1B8   20 CD8D      2549   posint  jsr  chknum
     D1BB   A5 66        2550   	lda  facsgn
     D1BD   30 0D        2551   	bmi  nonono
     D1BF   A5 61        2552   ayint   lda  facexp
     D1C1   C9 90        2553   	cmp  #144
     D1C3   90 09        2554   	bcc  qintgo
     D1C5   A9 A5        2555   	lda  #<n32768
     D1C7   A0 D1        2556   	ldy  #>n32768
     D1C9   20 DC5B      2557   	jsr  fcomp
     D1CC   D0 7A        2558   nonono  bne  fcerr
     D1CE   4C DC9B      2559   qintgo  jmp  qint
                         2560   
     D1D1   A5 0C        2561   isary   lda  dimflg
     D1D3   05 0E        2562   	ora  intflg
     D1D5   48           2563   	pha
     D1D6   A5 0D        2564   	lda  valtyp
     D1D8   48           2565   	pha
     D1D9   A0 00        2566   	ldy  #0
     D1DB   98           2567   indlop  tya
     D1DC   48           2568   	pha
     D1DD   A5 46        2569   	lda  varnam+1
     D1DF   48           2570   	pha
     D1E0   A5 45        2571   	lda  varnam
     D1E2   48           2572   	pha
     D1E3   20 D1B2      2573   	jsr  intidx
     D1E6   68           2574   	pla
     D1E7   85 45        2575   	sta  varnam
     D1E9   68           2576   	pla
     D1EA   85 46        2577   	sta  varnam+1
     D1EC   68           2578   	pla
     D1ED   A8           2579   	tay
     D1EE   BA           2580   	tsx
     D1EF   BD 0102      2581   	lda  258,x
     D1F2   48           2582   	pha
     D1F3   BD 0101      2583   	lda  257,x
     D1F6   48           2584   	pha
     D1F7   A5 64        2585   	lda  indice
     D1F9   9D 0102      2586   	sta  258,x
     D1FC   A5 65        2587   	lda  indice+1
     D1FE   9D 0101      2588   	sta  257,x

VIC20 BASIC  #901486-04 (C)1981 CBM	CR6502/11 version 20.53.12	4-Nov-87  12:9:18	Page 20-1
CODE12   VBASIC.SRC

Error Addr  Code          Seq   Source statement

     D201   C8           2589   	iny
     D202   20 0079      2590   	jsr  chrgot
     D205   C9 2C        2591   	cmp  #44
     D207   F0 D2        2592   	beq  indlop
     D209   84 0B        2593   	sty  count
     D20B   20 CEF7      2594   	jsr  chkcls
     D20E   68           2595   	pla
     D20F   85 0D        2596   	sta  valtyp
     D211   68           2597   	pla
     D212   85 0E        2598   	sta  intflg
     D214   29 7F        2599   	and  #127
     D216   85 0C        2600   	sta  dimflg
     D218   A6 2F        2601   	ldx  arytab
     D21A   A5 30        2602   	lda  arytab+1
     D21C   86 5F        2603   lopfda  stx  lowtr
     D21E   85 60        2604   	sta  lowtr+1
     D220   C5 32        2605   	cmp  strend+1
     D222   D0 04        2606   	bne  lopfdv
     D224   E4 31        2607   	cpx  strend
     D226   F0 39        2608   	beq  notfdd
     D228   A0 00        2609   lopfdv  ldy  #0
     D22A   B1 5F        2610   	lda  (lowtr),y
     D22C   C8           2611   	iny
     D22D   C5 45        2612   	cmp  varnam
     D22F   D0 06        2613   	bne  nmary1
     D231   A5 46        2614   	lda  varnam+1
     D233   D1 5F        2615   	cmp  (lowtr),y
     D235   F0 16        2616   	beq  gotary
     D237   C8           2617   nmary1  iny
     D238   B1 5F        2618   	lda  (lowtr),y
     D23A   18           2619   	clc
     D23B   65 5F        2620   	adc  lowtr
     D23D   AA           2621   	tax
     D23E   C8           2622   	iny
     D23F   B1 5F        2623   	lda  (lowtr),y
     D241   65 60        2624   	adc  lowtr+1
     D243   90 D7        2625   	bcc  lopfda
     D245   A2 12        2626   bserr   ldx  #errbs
     D247   2C           2627   	.byte   $2c
     D248   A2 0E        2628   fcerr   ldx  #errfc
     D24A   4C C437      2629   errgo3  jmp  error
                         2630   
     D24D   A2 13        2631   gotary  ldx  #errdd
     D24F   A5 0C        2632   	lda  dimflg
     D251   D0 F7        2633   	bne  errgo3
     D253   20 D194      2634   	jsr  fmaptr
     D256   A5 0B        2635   	lda  count
     D258   A0 04        2636   	ldy  #4
     D25A   D1 5F        2637   	cmp  (lowtr),y
     D25C   D0 E7        2638   	bne  bserr

VIC20 BASIC  #901486-04 (C)1981 CBM	CR6502/11 version 20.53.12	4-Nov-87  12:9:18	Page 20-2
CODE12   VBASIC.SRC

Error Addr  Code          Seq   Source statement

     D25E   4C D2EA      2639   	jmp  getdef
                         2640   
     D261   20 D194      2641   notfdd  jsr  fmaptr
     D264   20 C408      2642   	jsr  reason
     D267   A0 00        2643   	ldy  #0
     D269   84 72        2644   	sty  curtol+1
     D26B   A2 05        2645   	ldx  #5
     D26D   A5 45        2646   	lda  varnam
     D26F   91 5F        2647   	sta  (lowtr),y
     D271   10 01        2648   	bpl  notflt
     D273   CA           2649   	dex
     D274   C8           2650   notflt  iny
     D275   A5 46        2651   	lda  varnam+1
     D277   91 5F        2652   	sta  (lowtr),y
     D279   10 02        2653   	bpl  stomlt
     D27B   CA           2654   	dex
     D27C   CA           2655   	dex
     D27D   86 71        2656   stomlt  stx  curtol
     D27F   A5 0B        2657   	lda  count
     D281   C8           2658   	iny
     D282   C8           2659   	iny
     D283   C8           2660   	iny
     D284   91 5F        2661   	sta  (lowtr),y
     D286   A2 0B        2662   loppta  ldx  #11
     D288   A9 00        2663   	lda  #0
     D28A   24 0C        2664   	bit  dimflg
     D28C   50 08        2665   	bvc  notdim
     D28E   68           2666   	pla
     D28F   18           2667   	clc
     D290   69 01        2668   	adc  #1
     D292   AA           2669   	tax
     D293   68           2670   	pla
     D294   69 00        2671   	adc  #0
     D296   C8           2672   notdim  iny
     D297   91 5F        2673   	sta  (lowtr),y
     D299   C8           2674   	iny
     D29A   8A           2675   	txa
     D29B   91 5F        2676   	sta  (lowtr),y
     D29D   20 D34C      2677   	jsr  umult
     D2A0   86 71        2678   	stx  curtol
     D2A2   85 72        2679   	sta  curtol+1
     D2A4   A4 22        2680   	ldy  index
     D2A6   C6 0B        2681   	dec  count
     D2A8   D0 DC        2682   	bne  loppta
     D2AA   65 59        2683   	adc  arypnt+1
     D2AC   B0 5D        2684   	bcs  omerr1
     D2AE   85 59        2685   	sta  arypnt+1
     D2B0   A8           2686   	tay
     D2B1   8A           2687   	txa
     D2B2   65 58        2688   	adc  arypnt

VIC20 BASIC  #901486-04 (C)1981 CBM	CR6502/11 version 20.53.12	4-Nov-87  12:9:18	Page 20-3
CODE12   VBASIC.SRC

Error Addr  Code          Seq   Source statement

     D2B4   90 03        2689   	bcc  grease
     D2B6   C8           2690   	iny
     D2B7   F0 52        2691   	beq  omerr1
     D2B9   20 C408      2692   grease  jsr  reason
     D2BC   85 31        2693   	sta  strend
     D2BE   84 32        2694   	sty  strend+1
     D2C0   A9 00        2695   	lda  #0
     D2C2   E6 72        2696   	inc  curtol+1
                         2697   ;.end
                         2698   

VIC20 BASIC  #901486-04 (C)1981 CBM	CR6502/11 version 20.53.12	4-Nov-87  12:9:18	Page 21
CODE13   VBASIC.SRC

Error Addr  Code          Seq   Source statement

                         2700   	.subttl CODE13
     D2C4   A4 71        2701   	ldy  curtol
     D2C6   F0 05        2702   	beq  deccur
     D2C8   88           2703   zerita  dey
     D2C9   91 58        2704   	sta  (arypnt),y
     D2CB   D0 FB        2705   	bne  zerita
     D2CD   C6 59        2706   deccur  dec  arypnt+1
     D2CF   C6 72        2707   	dec  curtol+1
     D2D1   D0 F5        2708   	bne  zerita
     D2D3   E6 59        2709   	inc  arypnt+1
     D2D5   38           2710   	sec
     D2D6   A5 31        2711   	lda  strend
     D2D8   E5 5F        2712   	sbc  lowtr
     D2DA   A0 02        2713   	ldy  #2
     D2DC   91 5F        2714   	sta  (lowtr),y
     D2DE   A5 32        2715   	lda  strend+1
     D2E0   C8           2716   	iny
     D2E1   E5 60        2717   	sbc  lowtr+1
     D2E3   91 5F        2718   	sta  (lowtr),y
     D2E5   A5 0C        2719   	lda  dimflg
     D2E7   D0 62        2720   	bne  dimrts
     D2E9   C8           2721   	iny
     D2EA   B1 5F        2722   getdef  lda  (lowtr),y
     D2EC   85 0B        2723   	sta  count
     D2EE   A9 00        2724   	lda  #0
     D2F0   85 71        2725   	sta  curtol
     D2F2   85 72        2726   inlpnm  sta  curtol+1
     D2F4   C8           2727   	iny
     D2F5   68           2728   	pla
     D2F6   AA           2729   	tax
     D2F7   85 64        2730   	sta  indice
     D2F9   68           2731   	pla
     D2FA   85 65        2732   	sta  indice+1
     D2FC   D1 5F        2733   	cmp  (lowtr),y
     D2FE   90 0E        2734   	bcc  inlpn2
     D300   D0 06        2735   	bne  bserr7
     D302   C8           2736   	iny
     D303   8A           2737   	txa
     D304   D1 5F        2738   	cmp  (lowtr),y
     D306   90 07        2739   	bcc  inlpn1
     D308   4C D245      2740   bserr7  jmp  bserr
                         2741   
     D30B   4C C435      2742   omerr1  jmp  omerr
                         2743   
     D30E   C8           2744   inlpn2  iny
     D30F   A5 72        2745   inlpn1  lda  curtol+1
     D311   05 71        2746   	ora  curtol
     D313   18           2747   	clc
     D314   F0 0A        2748   	beq  addind
     D316   20 D34C      2749   	jsr  umult

VIC20 BASIC  #901486-04 (C)1981 CBM	CR6502/11 version 20.53.12	4-Nov-87  12:9:18	Page 21-1
CODE13   VBASIC.SRC

Error Addr  Code          Seq   Source statement

     D319   8A           2750   	txa
     D31A   65 64        2751   	adc  indice
     D31C   AA           2752   	tax
     D31D   98           2753   	tya
     D31E   A4 22        2754   	ldy  index1
     D320   65 65        2755   addind  adc  indice+1
     D322   86 71        2756   	stx  curtol
     D324   C6 0B        2757   	dec  count
     D326   D0 CA        2758   	bne  inlpnm
     D328   85 72        2759   	sta  curtol+1
     D32A   A2 05        2760   	ldx  #5
     D32C   A5 45        2761   	lda  varnam
     D32E   10 01        2762   	bpl  notfl1
     D330   CA           2763   	dex
     D331   A5 46        2764   notfl1  lda  varnam+1
     D333   10 02        2765   	bpl  stoml1
     D335   CA           2766   	dex
     D336   CA           2767   	dex
     D337   86 28        2768   stoml1  stx  addend
     D339   A9 00        2769   	lda  #0
     D33B   20 D355      2770   	jsr  umultd
     D33E   8A           2771   	txa
     D33F   65 58        2772   	adc  arypnt
     D341   85 47        2773   	sta  varpnt
     D343   98           2774   	tya
     D344   65 59        2775   	adc  arypnt+1
     D346   85 48        2776   	sta  varpnt+1
     D348   A8           2777   	tay
     D349   A5 47        2778   	lda  varpnt
     D34B   60           2779   dimrts  rts
                         2780   
     D34C   84 22        2781   umult   sty  index
     D34E   B1 5F        2782   	lda  (lowtr),y
     D350   85 28        2783   	sta  addend
     D352   88           2784   	dey
     D353   B1 5F        2785   	lda  (lowtr),y
     D355   85 29        2786   umultd  sta  addend+1
     D357   A9 10        2787   	lda  #16
     D359   85 5D        2788   	sta  deccnt
     D35B   A2 00        2789   	ldx  #0
     D35D   A0 00        2790   	ldy  #0
     D35F   8A           2791   umultc  txa
     D360   0A           2792   	asl  a
     D361   AA           2793   	tax
     D362   98           2794   	tya
     D363   2A           2795   	rol  a
     D364   A8           2796   	tay
     D365   B0 A4        2797   	bcs  omerr1
     D367   06 71        2798   	asl  curtol
     D369   26 72        2799   	rol  curtol+1

VIC20 BASIC  #901486-04 (C)1981 CBM	CR6502/11 version 20.53.12	4-Nov-87  12:9:18	Page 21-2
CODE13   VBASIC.SRC

Error Addr  Code          Seq   Source statement

     D36B   90 0B        2800   	bcc  umlcnt
     D36D   18           2801   	clc
     D36E   8A           2802   	txa
     D36F   65 28        2803   	adc  addend
     D371   AA           2804   	tax
     D372   98           2805   	tya
     D373   65 29        2806   	adc  addend+1
     D375   A8           2807   	tay
     D376   B0 93        2808   	bcs  omerr1
     D378   C6 5D        2809   umlcnt  dec  deccnt
     D37A   D0 E3        2810   	bne  umultc
     D37C   60           2811   umlrts  rts
                         2812   
     D37D   A5 0D        2813   fre     lda  valtyp
     D37F   F0 03        2814   	beq  nofref
     D381   20 D6A6      2815   	jsr  frefac
     D384   20 D526      2816   nofref  jsr  garba2
     D387   38           2817   	sec
     D388   A5 33        2818   	lda  fretop
     D38A   E5 31        2819   	sbc  strend
     D38C   A8           2820   	tay
     D38D   A5 34        2821   	lda  fretop+1
     D38F   E5 32        2822   	sbc  strend+1
     D391   A2 00        2823   givayf  ldx  #0
     D393   86 0D        2824   	stx  valtyp
     D395   85 62        2825   	sta  facho
     D397   84 63        2826   	sty  facho+1
     D399   A2 90        2827   	ldx  #144
     D39B   4C DC44      2828   	jmp  floats
                         2829   
     D39E   38           2830   pos     sec
     D39F   20 FFF0      2831   	jsr  plot       ; get tab pos in .y
     D3A2   A9 00        2832   sngflt  lda  #0
     D3A4   F0 EB        2833   	beq  givayf
     D3A6   A6 3A        2834   errdir  ldx  curlin+1
     D3A8   E8           2835   	inx
     D3A9   D0 A0        2836   	bne  dimrts
     D3AB   A2 15        2837   	ldx  #errid
     D3AD   2C           2838   	.byte   $2c
     D3AE   A2 1B        2839   errguf  ldx  #erruf
     D3B0   4C C437      2840   	jmp  error
                         2841   
     D3B3   20 D3E1      2842   def     jsr  getfnm
     D3B6   20 D3A6      2843   	jsr  errdir
     D3B9   20 CEFA      2844   	jsr  chkopn
     D3BC   A9 80        2845   	lda  #128
     D3BE   85 10        2846   	sta  subflg
     D3C0   20 D08B      2847   	jsr  ptrget
     D3C3   20 CD8D      2848   	jsr  chknum
     D3C6   20 CEF7      2849   	jsr  chkcls

VIC20 BASIC  #901486-04 (C)1981 CBM	CR6502/11 version 20.53.12	4-Nov-87  12:9:18	Page 21-3
CODE13   VBASIC.SRC

Error Addr  Code          Seq   Source statement

     D3C9   A9 B2        2850   	lda  #$b2
     D3CB   20 CEFF      2851   	jsr  synchr
     D3CE   48           2852   	pha
     D3CF   A5 48        2853   	lda  varpnt+1
     D3D1   48           2854   	pha
     D3D2   A5 47        2855   	lda  varpnt
     D3D4   48           2856   	pha
     D3D5   A5 7B        2857   	lda  txtptr+1
                         2858   ;.end
                         2859   

VIC20 BASIC  #901486-04 (C)1981 CBM	CR6502/11 version 20.53.12	4-Nov-87  12:9:18	Page 22
CODE14   VBASIC.SRC

Error Addr  Code          Seq   Source statement

                         2861   	.subttl CODE14
     D3D7   48           2862   	pha
     D3D8   A5 7A        2863   	lda  txtptr
     D3DA   48           2864   	pha
     D3DB   20 C8F8      2865   	jsr  data
     D3DE   4C D44F      2866   	jmp  deffin
                         2867   
     D3E1   A9 A5        2868   getfnm  lda  #fntk
     D3E3   20 CEFF      2869   	jsr  synchr
     D3E6   09 80        2870   	ora  #128
     D3E8   85 10        2871   	sta  subflg
     D3EA   20 D092      2872   	jsr  ptrgt2
     D3ED   85 4E        2873   	sta  defpnt
     D3EF   84 4F        2874   	sty  defpnt+1
     D3F1   4C CD8D      2875   	jmp  chknum
                         2876   
     D3F4   20 D3E1      2877   fndoer  jsr  getfnm
     D3F7   A5 4F        2878   	lda  defpnt+1
     D3F9   48           2879   	pha
     D3FA   A5 4E        2880   	lda  defpnt
     D3FC   48           2881   	pha
     D3FD   20 CEF1      2882   	jsr  parchk
     D400   20 CD8D      2883   	jsr  chknum
     D403   68           2884   	pla
     D404   85 4E        2885   	sta  defpnt
     D406   68           2886   	pla
     D407   85 4F        2887   	sta  defpnt+1
     D409   A0 02        2888   	ldy  #2
     D40B   B1 4E        2889   	lda  (defpnt),y
     D40D   85 47        2890   	sta  varpnt
     D40F   AA           2891   	tax
     D410   C8           2892   	iny
     D411   B1 4E        2893   	lda  (defpnt),y
     D413   F0 99        2894   	beq  errguf
     D415   85 48        2895   	sta  varpnt+1
     D417   C8           2896   	iny
     D418   B1 47        2897   defstf  lda  (varpnt),y
     D41A   48           2898   	pha
     D41B   88           2899   	dey
     D41C   10 FA        2900   	bpl  defstf
     D41E   A4 48        2901   	ldy  varpnt+1
     D420   20 DBD4      2902   	jsr  movmf
     D423   A5 7B        2903   	lda  txtptr+1
     D425   48           2904   	pha
     D426   A5 7A        2905   	lda  txtptr
     D428   48           2906   	pha
     D429   B1 4E        2907   	lda  (defpnt),y
     D42B   85 7A        2908   	sta  txtptr
     D42D   C8           2909   	iny
     D42E   B1 4E        2910   	lda  (defpnt),y

VIC20 BASIC  #901486-04 (C)1981 CBM	CR6502/11 version 20.53.12	4-Nov-87  12:9:18	Page 22-1
CODE14   VBASIC.SRC

Error Addr  Code          Seq   Source statement

     D430   85 7B        2911   	sta  txtptr+1
     D432   A5 48        2912   	lda  varpnt+1
     D434   48           2913   	pha
     D435   A5 47        2914   	lda  varpnt
     D437   48           2915   	pha
     D438   20 CD8A      2916   	jsr  frmnum
     D43B   68           2917   	pla
     D43C   85 4E        2918   	sta  defpnt
     D43E   68           2919   	pla
     D43F   85 4F        2920   	sta  defpnt+1
     D441   20 0079      2921   	jsr  chrgot
     D444   F0 03        2922   	beq  *+5
     D446   4C CF08      2923   	jmp  snerr
                         2924   
     D449   68           2925   	pla
     D44A   85 7A        2926   	sta  txtptr
     D44C   68           2927   	pla
     D44D   85 7B        2928   	sta  txtptr+1
     D44F   A0 00        2929   deffin  ldy  #0
     D451   68           2930   	pla
     D452   91 4E        2931   	sta  (defpnt),y
     D454   68           2932   	pla
     D455   C8           2933   	iny
     D456   91 4E        2934   	sta  (defpnt),y
     D458   68           2935   	pla
     D459   C8           2936   	iny
     D45A   91 4E        2937   	sta  (defpnt),y
     D45C   68           2938   	pla
     D45D   C8           2939   	iny
     D45E   91 4E        2940   	sta  (defpnt),y
     D460   68           2941   	pla
     D461   C8           2942   	iny
     D462   91 4E        2943   	sta  (defpnt),y
     D464   60           2944   	rts
                         2945   
     D465   20 CD8D      2946   strd    jsr  chknum
     D468   A0 00        2947   	ldy  #0
     D46A   20 DDDF      2948   	jsr  foutc
     D46D   68           2949   	pla
     D46E   68           2950   	pla
     D46F   A9 FF        2951   timstr  lda  #<lofbuf
     D471   A0 00        2952   	ldy  #>lofbuf
     D473   F0 12        2953   	beq  strlit
     D475   A6 64        2954   strini  ldx  facmo
     D477   A4 65        2955   	ldy  facmo+1
     D479   86 50        2956   	stx  dscpnt
     D47B   84 51        2957   	sty  dscpnt+1
     D47D   20 D4F4      2958   strspa  jsr  getspa
     D480   86 62        2959   	stx  dsctmp+1
     D482   84 63        2960   	sty  dsctmp+2

VIC20 BASIC  #901486-04 (C)1981 CBM	CR6502/11 version 20.53.12	4-Nov-87  12:9:18	Page 22-2
CODE14   VBASIC.SRC

Error Addr  Code          Seq   Source statement

     D484   85 61        2961   	sta  dsctmp
     D486   60           2962   	rts
                         2963   
     D487   A2 22        2964   strlit  ldx  #34
     D489   86 07        2965   	stx  charac
     D48B   86 08        2966   	stx  endchr
     D48D   85 6F        2967   strlt2  sta  strng1
     D48F   84 70        2968   	sty  strng1+1
     D491   85 62        2969   	sta  dsctmp+1
     D493   84 63        2970   	sty  dsctmp+2
     D495   A0 FF        2971   	ldy  #255
     D497   C8           2972   strget  iny
     D498   B1 6F        2973   	lda  (strng1),y
     D49A   F0 0C        2974   	beq  strfi1
     D49C   C5 07        2975   	cmp  charac
     D49E   F0 04        2976   	beq  strfin
     D4A0   C5 08        2977   	cmp  endchr
     D4A2   D0 F3        2978   	bne  strget
     D4A4   C9 22        2979   strfin  cmp  #34
     D4A6   F0 01        2980   	beq  strfi2
     D4A8   18           2981   strfi1  clc
     D4A9   84 61        2982   strfi2  sty  dsctmp
     D4AB   98           2983   	tya
     D4AC   65 6F        2984   	adc  strng1
     D4AE   85 71        2985   	sta  strng2
     D4B0   A6 70        2986   	ldx  strng1+1
     D4B2   90 01        2987   	bcc  strst2
     D4B4   E8           2988   	inx
     D4B5   86 72        2989   strst2  stx  strng2+1
     D4B7   A5 70        2990   	lda  strng1+1
     D4B9   F0 04        2991   	beq  strcp
     D4BB   C9 02        2992   	cmp  #bufpag
     D4BD   D0 0B        2993   	bne  putnew
     D4BF   98           2994   strcp   tya
     D4C0   20 D475      2995   	jsr  strini
     D4C3   A6 6F        2996   	ldx  strng1
     D4C5   A4 70        2997   	ldy  strng1+1
     D4C7   20 D688      2998   	jsr  movstr
     D4CA   A6 16        2999   putnew  ldx  temppt
     D4CC   E0 22        3000   	cpx  #tempst+strsiz+strsiz+strsiz
     D4CE   D0 05        3001   	bne  putnw1
     D4D0   A2 19        3002   	ldx  #errst
     D4D2   4C C437      3003   errgo2  jmp  error
                         3004   
     D4D5   A5 61        3005   putnw1  lda  dsctmp
     D4D7   95 00        3006   	sta  0,x
     D4D9   A5 62        3007   	lda  dsctmp+1
     D4DB   95 01        3008   	sta  1,x
     D4DD   A5 63        3009   	lda  dsctmp+2
     D4DF   95 02        3010   	sta  2,x

VIC20 BASIC  #901486-04 (C)1981 CBM	CR6502/11 version 20.53.12	4-Nov-87  12:9:18	Page 22-3
CODE14   VBASIC.SRC

Error Addr  Code          Seq   Source statement

     D4E1   A0 00        3011   	ldy  #0
     D4E3   86 64        3012   	stx  facmo
     D4E5   84 65        3013   	sty  facmo+1
     D4E7   84 70        3014   	sty  facov
     D4E9   88           3015   	dey
     D4EA   84 0D        3016   	sty  valtyp
     D4EC   86 17        3017   	stx  lastpt
     D4EE   E8           3018   	inx
     D4EF   E8           3019   	inx
     D4F0   E8           3020   	inx
     D4F1   86 16        3021   	stx  temppt
     D4F3   60           3022   	rts
                         3023   
     D4F4   46 0F        3024   getspa  lsr  garbfl
     D4F6   48           3025   tryag2  pha
     D4F7   49 FF        3026   	eor  #255
     D4F9   38           3027   	sec
     D4FA   65 33        3028   	adc  fretop
     D4FC   A4 34        3029   	ldy  fretop+1
     D4FE   B0 01        3030   	bcs  tryag3
     D500   88           3031   	dey
     D501   C4 32        3032   tryag3  cpy  strend+1
     D503   90 11        3033   	bcc  garbag
     D505   D0 04        3034   	bne  strfre
     D507   C5 31        3035   	cmp  strend
     D509   90 0B        3036   	bcc  garbag
     D50B   85 33        3037   strfre  sta  fretop
     D50D   84 34        3038   	sty  fretop+1
     D50F   85 35        3039   	sta  frespc
     D511   84 36        3040   	sty  frespc+1
     D513   AA           3041   	tax
     D514   68           3042   	pla
     D515   60           3043   	rts
                         3044   
     D516   A2 10        3045   garbag  ldx  #errom
     D518   A5 0F        3046   	lda  garbfl
     D51A   30 B6        3047   	bmi  errgo2
     D51C   20 D526      3048   	jsr  garba2
     D51F   A9 80        3049   	lda  #128
     D521   85 0F        3050   	sta  garbfl
     D523   68           3051   	pla
     D524   D0 D0        3052   	bne  tryag2
     D526   A6 37        3053   garba2  ldx  memsiz
     D528   A5 38        3054   	lda  memsiz+1
     D52A   86 33        3055   fndvar  stx  fretop
     D52C   85 34        3056   	sta  fretop+1
     D52E   A0 00        3057   	ldy  #0
     D530   84 4F        3058   	sty  grbpnt+1
     D532   84 4E        3059   	sty  grbpnt
     D534   A5 31        3060   	lda  strend

VIC20 BASIC  #901486-04 (C)1981 CBM	CR6502/11 version 20.53.12	4-Nov-87  12:9:18	Page 22-4
CODE14   VBASIC.SRC

Error Addr  Code          Seq   Source statement

     D536   A6 32        3061   	ldx  strend+1
     D538   85 5F        3062   	sta  grbtop
     D53A   86 60        3063   	stx  grbtop+1
     D53C   A9 19        3064   	lda  #<tempst
     D53E   A2 00        3065   	ldx  #>tempst
     D540   85 22        3066   	sta  index1
     D542   86 23        3067   	stx  index1+1
     D544   C5 16        3068   tvar    cmp  temppt
     D546   F0 05        3069   	beq  svars
     D548   20 D5C7      3070   	jsr  dvar
     D54B   F0 F7        3071   	beq  tvar
     D54D   A9 07        3072   svars   lda  #6+addprc
     D54F   85 53        3073   	sta  four6
     D551   A5 2D        3074   	lda  vartab
     D553   A6 2E        3075   	ldx  vartab+1
                         3076   ;.end
                         3077   

VIC20 BASIC  #901486-04 (C)1981 CBM	CR6502/11 version 20.53.12	4-Nov-87  12:9:18	Page 23
CODE15   VBASIC.SRC

Error Addr  Code          Seq   Source statement

                         3079   	.subttl CODE15
     D555   85 22        3080   	sta  index1
     D557   86 23        3081   	stx  index1+1
     D559   E4 30        3082   svar    cpx  arytab+1
     D55B   D0 04        3083   	bne  svargo
     D55D   C5 2F        3084   	cmp  arytab
     D55F   F0 05        3085   	beq  aryvar
     D561   20 D5BD      3086   svargo  jsr  dvars
     D564   F0 F3        3087   	beq  svar
     D566   85 58        3088   aryvar  sta  arypnt
     D568   86 59        3089   	stx  arypnt+1
     D56A   A9 03        3090   	lda  #strsiz
     D56C   85 53        3091   	sta  four6
     D56E   A5 58        3092   aryva2  lda  arypnt
     D570   A6 59        3093   	ldx  arypnt+1
     D572   E4 32        3094   aryva3  cpx  strend+1
     D574   D0 07        3095   	bne  aryvgo
     D576   C5 31        3096   	cmp  strend
     D578   D0 03        3097   	bne  *+5
     D57A   4C D606      3098   	jmp  grbpas
                         3099   
     D57D   85 22        3100   aryvgo  sta  index1
     D57F   86 23        3101   	stx  index1+1
     D581   A0 00        3102   	ldy  #1-addprc
     D583   B1 22        3103   	lda  (index1),y
     D585   AA           3104   	tax
     D586   C8           3105   	iny
     D587   B1 22        3106   	lda  (index1),y
     D589   08           3107   	php
     D58A   C8           3108   	iny
     D58B   B1 22        3109   	lda  (index1),y
     D58D   65 58        3110   	adc  arypnt
     D58F   85 58        3111   	sta  arypnt
     D591   C8           3112   	iny
     D592   B1 22        3113   	lda  (index1),y
     D594   65 59        3114   	adc  arypnt+1
     D596   85 59        3115   	sta  arypnt+1
     D598   28           3116   	plp
     D599   10 D3        3117   	bpl  aryva2
     D59B   8A           3118   	txa
     D59C   30 D0        3119   	bmi  aryva2
     D59E   C8           3120   	iny
     D59F   B1 22        3121   	lda  (index1),y
     D5A1   A0 00        3122   	ldy  #0
     D5A3   0A           3123   	asl  a
     D5A4   69 05        3124   	adc  #5
     D5A6   65 22        3125   	adc  index1
     D5A8   85 22        3126   	sta  index1
     D5AA   90 02        3127   	bcc  aryget
     D5AC   E6 23        3128   	inc  index1+1

VIC20 BASIC  #901486-04 (C)1981 CBM	CR6502/11 version 20.53.12	4-Nov-87  12:9:18	Page 23-1
CODE15   VBASIC.SRC

Error Addr  Code          Seq   Source statement

     D5AE   A6 23        3129   aryget  ldx  index1+1
     D5B0   E4 59        3130   arystr  cpx  arypnt+1
     D5B2   D0 04        3131   	bne  gogo
     D5B4   C5 58        3132   	cmp  arypnt
     D5B6   F0 BA        3133   	beq  aryva3
     D5B8   20 D5C7      3134   gogo    jsr  dvar
     D5BB   F0 F3        3135   	beq  arystr
     D5BD   B1 22        3136   dvars   lda  (index1),y
     D5BF   30 35        3137   	bmi  dvarts
     D5C1   C8           3138   	iny
     D5C2   B1 22        3139   	lda  (index1),y
     D5C4   10 30        3140   	bpl  dvarts
     D5C6   C8           3141   	iny
     D5C7   B1 22        3142   dvar    lda  (index1),y
     D5C9   F0 2B        3143   	beq  dvarts
     D5CB   C8           3144   	iny
     D5CC   B1 22        3145   	lda  (index1),y
     D5CE   AA           3146   	tax
     D5CF   C8           3147   	iny
     D5D0   B1 22        3148   	lda  (index1),y
     D5D2   C5 34        3149   	cmp  fretop+1
     D5D4   90 06        3150   	bcc  dvar2
     D5D6   D0 1E        3151   	bne  dvarts
     D5D8   E4 33        3152   	cpx  fretop
     D5DA   B0 1A        3153   	bcs  dvarts
     D5DC   C5 60        3154   dvar2   cmp  grbtop+1
     D5DE   90 16        3155   	bcc  dvarts
     D5E0   D0 04        3156   	bne  dvar3
     D5E2   E4 5F        3157   	cpx  grbtop
     D5E4   90 10        3158   	bcc  dvarts
     D5E6   86 5F        3159   dvar3   stx  grbtop
     D5E8   85 60        3160   	sta  grbtop+1
     D5EA   A5 22        3161   	lda  index1
     D5EC   A6 23        3162   	ldx  index1+1
     D5EE   85 4E        3163   	sta  grbpnt
     D5F0   86 4F        3164   	stx  grbpnt+1
     D5F2   A5 53        3165   	lda  four6
     D5F4   85 55        3166   	sta  size
     D5F6   A5 53        3167   dvarts  lda  four6
     D5F8   18           3168   	clc
     D5F9   65 22        3169   	adc  index1
     D5FB   85 22        3170   	sta  index1
     D5FD   90 02        3171   	bcc  grbrts
     D5FF   E6 23        3172   	inc  index1+1
     D601   A6 23        3173   grbrts  ldx  index1+1
     D603   A0 00        3174   	ldy  #0
     D605   60           3175   	rts
                         3176   
     D606   A5 4F        3177   grbpas  lda  grbpnt+1
     D608   05 4E        3178   	ora  grbpnt

VIC20 BASIC  #901486-04 (C)1981 CBM	CR6502/11 version 20.53.12	4-Nov-87  12:9:18	Page 23-2
CODE15   VBASIC.SRC

Error Addr  Code          Seq   Source statement

     D60A   F0 F5        3179   	beq  grbrts
     D60C   A5 55        3180   	lda  size
     D60E   29 04        3181   	and  #4
     D610   4A           3182   	lsr  a
     D611   A8           3183   	tay
     D612   85 55        3184   	sta  size
     D614   B1 4E        3185   	lda  (grbpnt),y
     D616   65 5F        3186   	adc  lowtr
     D618   85 5A        3187   	sta  hightr
     D61A   A5 60        3188   	lda  lowtr+1
     D61C   69 00        3189   	adc  #0
     D61E   85 5B        3190   	sta  hightr+1
     D620   A5 33        3191   	lda  fretop
     D622   A6 34        3192   	ldx  fretop+1
     D624   85 58        3193   	sta  highds
     D626   86 59        3194   	stx  highds+1
     D628   20 C3BF      3195   	jsr  bltuc
     D62B   A4 55        3196   	ldy  size
     D62D   C8           3197   	iny
     D62E   A5 58        3198   	lda  highds
     D630   91 4E        3199   	sta  (grbpnt),y
     D632   AA           3200   	tax
     D633   E6 59        3201   	inc  highds+1
     D635   A5 59        3202   	lda  highds+1
     D637   C8           3203   	iny
     D638   91 4E        3204   	sta  (grbpnt),y
     D63A   4C D52A      3205   	jmp  fndvar
                         3206   
     D63D   A5 65        3207   cat     lda  faclo
     D63F   48           3208   	pha
     D640   A5 64        3209   	lda  facmo
     D642   48           3210   	pha
     D643   20 CE83      3211   	jsr  eval
     D646   20 CD8F      3212   	jsr  chkstr
     D649   68           3213   	pla
     D64A   85 6F        3214   	sta  strng1
     D64C   68           3215   	pla
     D64D   85 70        3216   	sta  strng1+1
     D64F   A0 00        3217   	ldy  #0
     D651   B1 6F        3218   	lda  (strng1),y
     D653   18           3219   	clc
     D654   71 64        3220   	adc  (facmo),y
     D656   90 05        3221   	bcc  sizeok
     D658   A2 17        3222   	ldx  #errls
     D65A   4C C437      3223   	jmp  error
                         3224   
     D65D   20 D475      3225   sizeok  jsr  strini
     D660   20 D67A      3226   	jsr  movins
     D663   A5 50        3227   	lda  dscpnt
     D665   A4 51        3228   	ldy  dscpnt+1

VIC20 BASIC  #901486-04 (C)1981 CBM	CR6502/11 version 20.53.12	4-Nov-87  12:9:18	Page 23-3
CODE15   VBASIC.SRC

Error Addr  Code          Seq   Source statement

     D667   20 D6AA      3229   	jsr  fretmp
     D66A   20 D68C      3230   	jsr  movdo
     D66D   A5 6F        3231   	lda  strng1
     D66F   A4 70        3232   	ldy  strng1+1
     D671   20 D6AA      3233   	jsr  fretmp
     D674   20 D4CA      3234   	jsr  putnew
     D677   4C CDB8      3235   	jmp  tstop
                         3236   
     D67A   A0 00        3237   movins  ldy  #0
     D67C   B1 6F        3238   	lda  (strng1),y
     D67E   48           3239   	pha
     D67F   C8           3240   	iny
                         3241   ;.end
                         3242   

VIC20 BASIC  #901486-04 (C)1981 CBM	CR6502/11 version 20.53.12	4-Nov-87  12:9:18	Page 24
CODE16   VBASIC.SRC

Error Addr  Code          Seq   Source statement

                         3244   	.subttl CODE16
     D680   B1 6F        3245   	lda  (strng1),y
     D682   AA           3246   	tax
     D683   C8           3247   	iny
     D684   B1 6F        3248   	lda  (strng1),y
     D686   A8           3249   	tay
     D687   68           3250   	pla
     D688   86 22        3251   movstr  stx  index
     D68A   84 23        3252   	sty  index+1
     D68C   A8           3253   movdo   tay
     D68D   F0 0A        3254   	beq  mvdone
     D68F   48           3255   	pha
     D690   88           3256   movlp   dey
     D691   B1 22        3257   	lda  (index),y
     D693   91 35        3258   	sta  (frespc),y
     D695   98           3259   	tya
     D696   D0 F8        3260   	bne  movlp
     D698   68           3261   	pla
     D699   18           3262   mvdone  clc
     D69A   65 35        3263   	adc  frespc
     D69C   85 35        3264   	sta  frespc
     D69E   90 02        3265   	bcc  mvstrt
     D6A0   E6 36        3266   	inc  frespc+1
     D6A2   60           3267   mvstrt  rts
                         3268   
     D6A3   20 CD8F      3269   frestr  jsr  chkstr
     D6A6   A5 64        3270   frefac  lda  facmo
     D6A8   A4 65        3271   	ldy  facmo+1
     D6AA   85 22        3272   fretmp  sta  index
     D6AC   84 23        3273   	sty  index+1
     D6AE   20 D6DB      3274   	jsr  fretms
     D6B1   08           3275   	php
     D6B2   A0 00        3276   	ldy  #0
     D6B4   B1 22        3277   	lda  (index),y
     D6B6   48           3278   	pha
     D6B7   C8           3279   	iny
     D6B8   B1 22        3280   	lda  (index),y
     D6BA   AA           3281   	tax
     D6BB   C8           3282   	iny
     D6BC   B1 22        3283   	lda  (index),y
     D6BE   A8           3284   	tay
     D6BF   68           3285   	pla
     D6C0   28           3286   	plp
     D6C1   D0 13        3287   	bne  fretrt
     D6C3   C4 34        3288   	cpy  fretop+1
     D6C5   D0 0F        3289   	bne  fretrt
     D6C7   E4 33        3290   	cpx  fretop
     D6C9   D0 0B        3291   	bne  fretrt
     D6CB   48           3292   	pha
     D6CC   18           3293   	clc

VIC20 BASIC  #901486-04 (C)1981 CBM	CR6502/11 version 20.53.12	4-Nov-87  12:9:18	Page 24-1
CODE16   VBASIC.SRC

Error Addr  Code          Seq   Source statement

     D6CD   65 33        3294   	adc  fretop
     D6CF   85 33        3295   	sta  fretop
     D6D1   90 02        3296   	bcc  frepla
     D6D3   E6 34        3297   	inc  fretop+1
     D6D5   68           3298   frepla  pla
     D6D6   86 22        3299   fretrt  stx  index
     D6D8   84 23        3300   	sty  index+1
     D6DA   60           3301   	rts
                         3302   
     D6DB   C4 18        3303   fretms  cpy  lastpt+1
     D6DD   D0 0C        3304   	bne  frerts
     D6DF   C5 17        3305   	cmp  lastpt
     D6E1   D0 08        3306   	bne  frerts
     D6E3   85 16        3307   	sta  temppt
     D6E5   E9 03        3308   	sbc  #strsiz
     D6E7   85 17        3309   	sta  lastpt
     D6E9   A0 00        3310   	ldy  #0
     D6EB   60           3311   frerts  rts
                         3312   
     D6EC   20 D7A1      3313   chrd    jsr  conint
     D6EF   8A           3314   	txa
     D6F0   48           3315   	pha
     D6F1   A9 01        3316   	lda  #1
     D6F3   20 D47D      3317   	jsr  strspa
     D6F6   68           3318   	pla
     D6F7   A0 00        3319   	ldy  #0
     D6F9   91 62        3320   	sta  (dsctmp+1),y
     D6FB   68           3321   	pla
     D6FC   68           3322   	pla
     D6FD   4C D4CA      3323   	jmp  putnew
                         3324   
     D700   20 D761      3325   leftd   jsr  pream
     D703   D1 50        3326   	cmp  (dscpnt),y
     D705   98           3327   	tya
     D706   90 04        3328   rleft   bcc  rleft1
     D708   B1 50        3329   	lda  (dscpnt),y
     D70A   AA           3330   	tax
     D70B   98           3331   	tya
     D70C   48           3332   rleft1  pha
     D70D   8A           3333   rleft2  txa
     D70E   48           3334   rleft3  pha
     D70F   20 D47D      3335   	jsr  strspa
     D712   A5 50        3336   	lda  dscpnt
     D714   A4 51        3337   	ldy  dscpnt+1
     D716   20 D6AA      3338   	jsr  fretmp
     D719   68           3339   	pla
     D71A   A8           3340   	tay
     D71B   68           3341   	pla
     D71C   18           3342   	clc
     D71D   65 22        3343   	adc  index

VIC20 BASIC  #901486-04 (C)1981 CBM	CR6502/11 version 20.53.12	4-Nov-87  12:9:18	Page 24-2
CODE16   VBASIC.SRC

Error Addr  Code          Seq   Source statement

     D71F   85 22        3344   	sta  index
     D721   90 02        3345   	bcc  pulmor
     D723   E6 23        3346   	inc  index+1
     D725   98           3347   pulmor  tya
     D726   20 D68C      3348   	jsr  movdo
     D729   4C D4CA      3349   	jmp  putnew
                         3350   
     D72C   20 D761      3351   rightd  jsr  pream
     D72F   18           3352   	clc
     D730   F1 50        3353   	sbc  (dscpnt),y
     D732   49 FF        3354   	eor  #255
     D734   4C D706      3355   	jmp  rleft
                         3356   
     D737   A9 FF        3357   midd    lda  #255
     D739   85 65        3358   	sta  faclo
     D73B   20 0079      3359   	jsr  chrgot
     D73E   C9 29        3360   	cmp  #41
     D740   F0 06        3361   	beq  mid2
     D742   20 CEFD      3362   	jsr  chkcom
     D745   20 D79E      3363   	jsr  getbyt
     D748   20 D761      3364   mid2    jsr  pream
     D74B   F0 4B        3365   	beq  gofuc
     D74D   CA           3366   	dex
     D74E   8A           3367   	txa
     D74F   48           3368   	pha
     D750   18           3369   	clc
     D751   A2 00        3370   	ldx  #0
     D753   F1 50        3371   	sbc  (dscpnt),y
     D755   B0 B6        3372   	bcs  rleft2
     D757   49 FF        3373   	eor  #255
     D759   C5 65        3374   	cmp  faclo
     D75B   90 B1        3375   	bcc  rleft3
     D75D   A5 65        3376   	lda  faclo
     D75F   B0 AD        3377   	bcs  rleft3
     D761   20 CEF7      3378   pream   jsr  chkcls
     D764   68           3379   	pla
     D765   A8           3380   	tay
     D766   68           3381   	pla
     D767   85 55        3382   	sta  jmper+1
     D769   68           3383   	pla
     D76A   68           3384   	pla
     D76B   68           3385   	pla
     D76C   AA           3386   	tax
     D76D   68           3387   	pla
     D76E   85 50        3388   	sta  dscpnt
     D770   68           3389   	pla
     D771   85 51        3390   	sta  dscpnt+1
     D773   A5 55        3391   	lda  jmper+1
     D775   48           3392   	pha
     D776   98           3393   	tya

VIC20 BASIC  #901486-04 (C)1981 CBM	CR6502/11 version 20.53.12	4-Nov-87  12:9:18	Page 24-3
CODE16   VBASIC.SRC

Error Addr  Code          Seq   Source statement

     D777   48           3394   	pha
     D778   A0 00        3395   	ldy  #0
     D77A   8A           3396   	txa
     D77B   60           3397   	rts
                         3398   
     D77C   20 D782      3399   len     jsr  len1
     D77F   4C D3A2      3400   	jmp  sngflt
                         3401   
     D782   20 D6A3      3402   len1    jsr  frestr
     D785   A2 00        3403   	ldx  #0
     D787   86 0D        3404   	stx  valtyp
     D789   A8           3405   	tay
     D78A   60           3406   	rts
                         3407   
     D78B   20 D782      3408   asc	jsr  len1
     D78E   F0 08        3409   	beq  gofuc
     D790   A0 00        3410   	ldy  #0
     D792   B1 22        3411   	lda  (index1),y
     D794   A8           3412   	tay
     D795   4C D3A2      3413   	jmp  sngflt
                         3414   
     D798   4C D248      3415   gofuc   jmp  fcerr
                         3416   
     D79B   20 0073      3417   gtbytc  jsr  chrget
                         3418   ;.end
                         3419   

VIC20 BASIC  #901486-04 (C)1981 CBM	CR6502/11 version 20.53.12	4-Nov-87  12:9:18	Page 25
CODE17   VBASIC.SRC

Error Addr  Code          Seq   Source statement

                         3421   	.subttl CODE17
     D79E   20 CD8A      3422   getbyt  jsr  frmnum
     D7A1   20 D1B8      3423   conint  jsr  posint
     D7A4   A6 64        3424   	ldx  facmo
     D7A6   D0 F0        3425   	bne  gofuc
     D7A8   A6 65        3426   	ldx  faclo
     D7AA   4C 0079      3427   	jmp  chrgot
                         3428   
     D7AD   20 D782      3429   val     jsr  len1
     D7B0   D0 03        3430   	bne  *+5
     D7B2   4C D8F7      3431   	jmp  zerofc
                         3432   
     D7B5   A6 7A        3433   	ldx  txtptr
     D7B7   A4 7B        3434   	ldy  txtptr+1
     D7B9   86 71        3435   	stx  strng2
     D7BB   84 72        3436   	sty  strng2+1
     D7BD   A6 22        3437   	ldx  index1
     D7BF   86 7A        3438   	stx  txtptr
     D7C1   18           3439   	clc
     D7C2   65 22        3440   	adc  index1
     D7C4   85 24        3441   	sta  index2
     D7C6   A6 23        3442   	ldx  index1+1
     D7C8   86 7B        3443   	stx  txtptr+1
     D7CA   90 01        3444   	bcc  val2
     D7CC   E8           3445   	inx
     D7CD   86 25        3446   val2    stx  index2+1
     D7CF   A0 00        3447   	ldy  #0
     D7D1   B1 24        3448   	lda  (index2),y
     D7D3   48           3449   	pha
     D7D4   98           3450   	tya     ; a=0
     D7D5   91 24        3451   	sta  (index2),y
     D7D7   20 0079      3452   	jsr  chrgot
     D7DA   20 DCF3      3453   	jsr  fin
     D7DD   68           3454   	pla
     D7DE   A0 00        3455   	ldy  #0
     D7E0   91 24        3456   	sta  (index2),y
     D7E2   A6 71        3457   st2txt  ldx  strng2
     D7E4   A4 72        3458   	ldy  strng2+1
     D7E6   86 7A        3459   	stx  txtptr
     D7E8   84 7B        3460   	sty  txtptr+1
     D7EA   60           3461   valrts  rts
                         3462   
     D7EB   20 CD8A      3463   getnum  jsr  frmnum
     D7EE   20 D7F7      3464   	jsr  getadr
     D7F1   20 CEFD      3465   combyt  jsr  chkcom
     D7F4   4C D79E      3466   	jmp  getbyt
                         3467   
     D7F7   A5 66        3468   getadr  lda  facsgn
     D7F9   30 9D        3469   	bmi  gofuc
     D7FB   A5 61        3470   	lda  facexp

VIC20 BASIC  #901486-04 (C)1981 CBM	CR6502/11 version 20.53.12	4-Nov-87  12:9:18	Page 25-1
CODE17   VBASIC.SRC

Error Addr  Code          Seq   Source statement

     D7FD   C9 91        3471   	cmp  #145
     D7FF   B0 97        3472   	bcs  gofuc
     D801   20 DC9B      3473   	jsr  qint
     D804   A5 64        3474   	lda  facmo
     D806   A4 65        3475   	ldy  facmo+1
     D808   84 14        3476   	sty  poker
     D80A   85 15        3477   	sta  poker+1
     D80C   60           3478   	rts
                         3479   
     D80D   A5 15        3480   peek    lda  poker+1
     D80F   48           3481   	pha
     D810   A5 14        3482   	lda  poker
     D812   48           3483   	pha
     D813   20 D7F7      3484   	jsr  getadr
     D816   A0 00        3485   	ldy  #0
     D818   B1 14        3486   getcon  lda  (poker),y
     D81A   A8           3487   	tay
     D81B   68           3488   dosgfl  pla
     D81C   85 14        3489   	sta  poker
     D81E   68           3490   	pla
     D81F   85 15        3491   	sta  poker+1
     D821   4C D3A2      3492   	jmp  sngflt
                         3493   
     D824   20 D7EB      3494   poke    jsr  getnum
     D827   8A           3495   	txa
     D828   A0 00        3496   	ldy  #0
     D82A   91 14        3497   	sta  (poker),y
     D82C   60           3498   	rts
                         3499   
     D82D   20 D7EB      3500   fnwait  jsr  getnum
     D830   86 49        3501   	stx  andmsk
     D832   A2 00        3502   	ldx  #0
     D834   20 0079      3503   	jsr  chrgot
     D837   F0 03        3504   	beq  stordo
     D839   20 D7F1      3505   	jsr  combyt
     D83C   86 4A        3506   stordo  stx  eormsk
     D83E   A0 00        3507   	ldy  #0
     D840   B1 14        3508   waiter  lda  (poker),y
     D842   45 4A        3509   	eor  eormsk
     D844   25 49        3510   	and  andmsk
     D846   F0 F8        3511   	beq  waiter
     D848   60           3512   zerrts  rts
                         3513   
     D849   A9 11        3514   faddh   lda  #<fhalf
     D84B   A0 DF        3515   	ldy  #>fhalf
     D84D   4C D867      3516   	jmp  fadd
                         3517   
     D850   20 DA8C      3518   fsub    jsr  conupk
     D853   A5 66        3519   fsubt   lda  facsgn
     D855   49 FF        3520   	eor  #@377

VIC20 BASIC  #901486-04 (C)1981 CBM	CR6502/11 version 20.53.12	4-Nov-87  12:9:18	Page 25-2
CODE17   VBASIC.SRC

Error Addr  Code          Seq   Source statement

     D857   85 66        3521   	sta  facsgn
     D859   45 6E        3522   	eor  argsgn
     D85B   85 6F        3523   	sta  arisgn
     D85D   A5 61        3524   	lda  facexp
     D85F   4C D86A      3525   	jmp  faddt
                         3526   
     D862   20 D999      3527   fadd5   jsr  shiftr
     D865   90 3C        3528   	bcc  fadd4
     D867   20 DA8C      3529   fadd    jsr  conupk
     D86A   D0 03        3530   faddt   bne  *+5
     D86C   4C DBFC      3531   	jmp  movfa
                         3532   
     D86F   A6 70        3533   	ldx  facov
     D871   86 56        3534   	stx  oldov
     D873   A2 69        3535   	ldx  #argexp
     D875   A5 69        3536   	lda  argexp
     D877   A8           3537   faddc   tay
     D878   F0 CE        3538   	beq  zerrts
     D87A   38           3539   	sec
     D87B   E5 61        3540   	sbc  facexp
     D87D   F0 24        3541   	beq  fadd4
     D87F   90 12        3542   	bcc  fadda
     D881   84 61        3543   	sty  facexp
     D883   A4 6E        3544   	ldy  argsgn
     D885   84 66        3545   	sty  facsgn
     D887   49 FF        3546   	eor  #@377
     D889   69 00        3547   	adc  #0
     D88B   A0 00        3548   	ldy  #0
     D88D   84 56        3549   	sty  oldov
     D88F   A2 61        3550   	ldx  #fac
     D891   D0 04        3551   	bne  fadd1
     D893   A0 00        3552   fadda   ldy  #0
     D895   84 70        3553   	sty  facov
     D897   C9 F9        3554   fadd1   cmp  #$f9
     D899   30 C7        3555   	bmi  fadd5
     D89B   A8           3556   	tay
     D89C   A5 70        3557   	lda  facov
     D89E   56 01        3558   	lsr  1,x
     D8A0   20 D9B0      3559   	jsr  rolshf
     D8A3   24 6F        3560   fadd4   bit  arisgn
     D8A5   10 57        3561   	bpl  fadd2
     D8A7   A0 61        3562   	ldy  #facexp
     D8A9   E0 69        3563   	cpx  #argexp
     D8AB   F0 02        3564   	beq  subit
     D8AD   A0 69        3565   	ldy  #argexp
     D8AF   38           3566   subit   sec
     D8B0   49 FF        3567   	eor  #@377
     D8B2   65 56        3568   	adc  oldov
     D8B4   85 70        3569   	sta  facov
     D8B6   B9 0004      3570   	lda  3+addprc,y

VIC20 BASIC  #901486-04 (C)1981 CBM	CR6502/11 version 20.53.12	4-Nov-87  12:9:18	Page 25-3
CODE17   VBASIC.SRC

Error Addr  Code          Seq   Source statement

     D8B9   F5 04        3571   	sbc  3+addprc,x
     D8BB   85 65        3572   	sta  faclo
     D8BD   B9 0003      3573   	lda  addprc+2,y
     D8C0   F5 03        3574   	sbc  2+addprc,x
     D8C2   85 64        3575   	sta  facmo
     D8C4   B9 0002      3576   	lda  2,y
     D8C7   F5 02        3577   	sbc  2,x
     D8C9   85 63        3578   	sta  facmoh
     D8CB   B9 0001      3579   	lda  1,y
     D8CE   F5 01        3580   	sbc  1,x
     D8D0   85 62        3581   	sta  facho
     D8D2   B0 03        3582   fadflt  bcs  normal
     D8D4   20 D947      3583   	jsr  negfac
     D8D7   A0 00        3584   normal  ldy  #0
     D8D9   98           3585   	tya
     D8DA   18           3586   	clc
     D8DB   A6 62        3587   norm3   ldx  facho
     D8DD   D0 4A        3588   	bne  norm1
     D8DF   A6 63        3589   	ldx  facho+1
     D8E1   86 62        3590   	stx  facho
     D8E3   A6 64        3591   	ldx  facmoh+1
                         3592   ;.end
                         3593   

VIC20 BASIC  #901486-04 (C)1981 CBM	CR6502/11 version 20.53.12	4-Nov-87  12:9:18	Page 26
CODE18   VBASIC.SRC

Error Addr  Code          Seq   Source statement

                         3595   	.subttl CODE18
     D8E5   86 63        3596   	stx  facmoh
     D8E7   A6 65        3597   	ldx  facmo+1
     D8E9   86 64        3598   	stx  facmo
     D8EB   A6 70        3599   	ldx  facov
     D8ED   86 65        3600   	stx  faclo
     D8EF   84 70        3601   	sty  facov
     D8F1   69 08        3602   	adc  #@10
                         3603   
            =0002        3604   addpr2   =addprc+addprc
            =0004        3605   addpr4   =addpr2+addpr2
            =0008        3606   addpr8   =addpr4+addpr4
                         3607   
     D8F3   C9 20        3608   	cmp  #@30+addpr8
     D8F5   D0 E4        3609   	bne  norm3
     D8F7   A9 00        3610   zerofc  lda  #0
     D8F9   85 61        3611   zerof1  sta  facexp
     D8FB   85 66        3612   zeroml  sta  facsgn
     D8FD   60           3613   	rts
                         3614   
     D8FE   65 56        3615   fadd2   adc  oldov
     D900   85 70        3616   	sta  facov
     D902   A5 65        3617   	lda  faclo
     D904   65 6D        3618   	adc  arglo
     D906   85 65        3619   	sta  faclo
     D908   A5 64        3620   	lda  facmo
     D90A   65 6C        3621   	adc  argmo
     D90C   85 64        3622   	sta  facmo
     D90E   A5 63        3623   	lda  facmoh
     D910   65 6B        3624   	adc  argmoh
     D912   85 63        3625   	sta  facmoh
     D914   A5 62        3626   	lda  facho
     D916   65 6A        3627   	adc  argho
     D918   85 62        3628   	sta  facho
     D91A   4C D936      3629   	jmp  squeez
                         3630   
     D91D   69 01        3631   norm2   adc  #1
     D91F   06 70        3632   	asl  facov
     D921   26 65        3633   	rol  faclo
     D923   26 64        3634   	rol  facmo
     D925   26 63        3635   	rol  facmoh
     D927   26 62        3636   	rol  facho
     D929   10 F2        3637   norm1   bpl  norm2
     D92B   38           3638   	sec
     D92C   E5 61        3639   	sbc  facexp
     D92E   B0 C7        3640   	bcs  zerofc
     D930   49 FF        3641   	eor  #@377
     D932   69 01        3642   	adc  #1
     D934   85 61        3643   	sta  facexp
     D936   90 0E        3644   squeez  bcc  rndrts

VIC20 BASIC  #901486-04 (C)1981 CBM	CR6502/11 version 20.53.12	4-Nov-87  12:9:18	Page 26-1
CODE18   VBASIC.SRC

Error Addr  Code          Seq   Source statement

     D938   E6 61        3645   rndshf  inc  facexp
     D93A   F0 42        3646   	beq  overr
     D93C   66 62        3647   	ror  facho
     D93E   66 63        3648   	ror  facmoh
     D940   66 64        3649   	ror  facmo
     D942   66 65        3650   	ror  faclo
     D944   66 70        3651   	ror  facov
     D946   60           3652   rndrts  rts
                         3653   
     D947   A5 66        3654   negfac  lda  facsgn
     D949   49 FF        3655   	eor  #@377
     D94B   85 66        3656   	sta  facsgn
     D94D   A5 62        3657   negfch  lda  facho
     D94F   49 FF        3658   	eor  #@377
     D951   85 62        3659   	sta  facho
     D953   A5 63        3660   	lda  facmoh
     D955   49 FF        3661   	eor  #@377
     D957   85 63        3662   	sta  facmoh
     D959   A5 64        3663   	lda  facmo
     D95B   49 FF        3664   	eor  #@377
     D95D   85 64        3665   	sta  facmo
     D95F   A5 65        3666   	lda  faclo
     D961   49 FF        3667   	eor  #@377
     D963   85 65        3668   	sta  faclo
     D965   A5 70        3669   	lda  facov
     D967   49 FF        3670   	eor  #@377
     D969   85 70        3671   	sta  facov
     D96B   E6 70        3672   	inc  facov
     D96D   D0 0E        3673   	bne  incfrt
     D96F   E6 65        3674   incfac  inc  faclo
     D971   D0 0A        3675   	bne  incfrt
     D973   E6 64        3676   	inc  facmo
     D975   D0 06        3677   	bne  incfrt
     D977   E6 63        3678   	inc  facmoh
     D979   D0 02        3679   	bne  incfrt
     D97B   E6 62        3680   	inc  facho
     D97D   60           3681   incfrt  rts
                         3682   
     D97E   A2 0F        3683   overr   ldx  #errov
     D980   4C C437      3684   	jmp  error
                         3685   
     D983   A2 25        3686   mulshf  ldx  #resho-1
     D985   B4 04        3687   shftr2  ldy  3+addprc,x
     D987   84 70        3688   	sty  facov
     D989   B4 03        3689   	ldy  3,x
     D98B   94 04        3690   	sty  4,x
     D98D   B4 02        3691   	ldy  2,x
     D98F   94 03        3692   	sty  3,x
     D991   B4 01        3693   	ldy  1,x
     D993   94 02        3694   	sty  2,x

VIC20 BASIC  #901486-04 (C)1981 CBM	CR6502/11 version 20.53.12	4-Nov-87  12:9:18	Page 26-2
CODE18   VBASIC.SRC

Error Addr  Code          Seq   Source statement

     D995   A4 68        3695   	ldy  bits
     D997   94 01        3696   	sty  1,x
     D999   69 08        3697   shiftr  adc  #@10
     D99B   30 E8        3698   	bmi  shftr2
     D99D   F0 E6        3699   	beq  shftr2
     D99F   E9 08        3700   	sbc  #@10
     D9A1   A8           3701   	tay
     D9A2   A5 70        3702   	lda  facov
     D9A4   B0 14        3703   	bcs  shftrt
     D9A6   16 01        3704   shftr3  asl  1,x
     D9A8   90 02        3705   	bcc  shftr4
     D9AA   F6 01        3706   	inc  1,x
     D9AC   76 01        3707   shftr4  ror  1,x
     D9AE   76 01        3708   	ror  1,x
     D9B0   76 02        3709   rolshf  ror  2,x
     D9B2   76 03        3710   	ror  3,x
     D9B4   76 04        3711   	ror  4,x
     D9B6   6A           3712   	ror  a
     D9B7   C8           3713   	iny
     D9B8   D0 EC        3714   	bne  shftr3
     D9BA   18           3715   shftrt  clc
     D9BB   60           3716   	rts
                         3717   
     D9BC   81 00 00     3718   fone     .byte  @201,0,0,0,0
     D9BF   00 00               
     D9C1   03 7F 5E     3719   logcn2   .byte  3,@177,@136,@126
     D9C4   56                  
     D9C5   CB 79 80     3720   	.byte   @313,@171,@200,@23
     D9C8   13                  
     D9C9   9B 0B 64     3721   	.byte   @233,@13,@144,@200
     D9CC   80                  
     D9CD   76 38 93     3722   	.byte   @166,@70,@223,@26
     D9D0   16                  
     D9D1   82 38 AA     3723   	.byte   @202,@70,@252,@73,@40
     D9D4   3B 20               
     D9D6   80 35 04     3724   sqr05    .byte  @200,@65,4,@363,@64
     D9D9   F3 34               
     D9DB   81 35 04     3725   sqr20    .byte  @201,@65,@4,@363,@64
     D9DE   F3 34               
     D9E0   80 80 00     3726   neghlf   .byte  @200,@200,0,0,0
     D9E3   00 00               
     D9E5   80 31 72     3727   log2     .byte  @200,@61,@162,@27,@370
     D9E8   17 F8               
                         3728   
                         3729   ;.end
                         3730   

VIC20 BASIC  #901486-04 (C)1981 CBM	CR6502/11 version 20.53.12	4-Nov-87  12:9:18	Page 27
CODE19   VBASIC.SRC

Error Addr  Code          Seq   Source statement

                         3732   	.subttl CODE19
     D9EA   20 DC2B      3733   log     jsr  sign
     D9ED   F0 02        3734   	beq  logerr
     D9EF   10 03        3735   	bpl  log1
     D9F1   4C D248      3736   logerr  jmp  fcerr
                         3737   
     D9F4   A5 61        3738   log1    lda  facexp
     D9F6   E9 7F        3739   	sbc  #@177
     D9F8   48           3740   	pha
     D9F9   A9 80        3741   	lda  #@200
     D9FB   85 61        3742   	sta  facexp
     D9FD   A9 D6        3743   	lda  #<sqr05
     D9FF   A0 D9        3744   	ldy  #>sqr05
     DA01   20 D867      3745   	jsr  fadd
     DA04   A9 DB        3746   	lda  #<sqr20
     DA06   A0 D9        3747   	ldy  #>sqr20
     DA08   20 DB0F      3748   	jsr  fdiv
     DA0B   A9 BC        3749   	lda  #<fone
     DA0D   A0 D9        3750   	ldy  #>fone
     DA0F   20 D850      3751   	jsr  fsub
     DA12   A9 C1        3752   	lda  #<logcn2
     DA14   A0 D9        3753   	ldy  #>logcn2
     DA16   20 E040      3754   	jsr  polyx
     DA19   A9 E0        3755   	lda  #<neghlf
     DA1B   A0 D9        3756   	ldy  #>neghlf
     DA1D   20 D867      3757   	jsr  fadd
     DA20   68           3758   	pla
     DA21   20 DD7E      3759   	jsr  finlog
     DA24   A9 E5        3760   	lda  #<log2
     DA26   A0 D9        3761   	ldy  #>log2
     DA28   20 DA8C      3762   fmult   jsr  conupk
     DA2B   D0 03        3763   fmultt  bne  *+5
     DA2D   4C DA8B      3764   	jmp  multrt
                         3765   
     DA30   20 DAB7      3766   	jsr  muldiv
     DA33   A9 00        3767   	lda  #0
     DA35   85 26        3768   	sta  resho
     DA37   85 27        3769   	sta  resmoh
     DA39   85 28        3770   	sta  resmo
     DA3B   85 29        3771   	sta  reslo
     DA3D   A5 70        3772   	lda  facov
     DA3F   20 DA59      3773   	jsr  mltply
     DA42   A5 65        3774   	lda  faclo
     DA44   20 DA59      3775   	jsr  mltply
     DA47   A5 64        3776   	lda  facmo
     DA49   20 DA59      3777   	jsr  mltply
     DA4C   A5 63        3778   	lda  facmoh
     DA4E   20 DA59      3779   	jsr  mltply
     DA51   A5 62        3780   	lda  facho
     DA53   20 DA5E      3781   	jsr  mltpl1

VIC20 BASIC  #901486-04 (C)1981 CBM	CR6502/11 version 20.53.12	4-Nov-87  12:9:18	Page 27-1
CODE19   VBASIC.SRC

Error Addr  Code          Seq   Source statement

     DA56   4C DB8F      3782   	jmp  movfr
                         3783   
     DA59   D0 03        3784   mltply  bne  *+5
     DA5B   4C D983      3785   	jmp  mulshf
                         3786   
     DA5E   4A           3787   mltpl1  lsr  a
     DA5F   09 80        3788   	ora  #@200
     DA61   A8           3789   mltpl2  tay
     DA62   90 19        3790   	bcc  mltpl3
     DA64   18           3791   	clc
     DA65   A5 29        3792   	lda  reslo
     DA67   65 6D        3793   	adc  arglo
     DA69   85 29        3794   	sta  reslo
     DA6B   A5 28        3795   	lda  resmo
     DA6D   65 6C        3796   	adc  argmo
     DA6F   85 28        3797   	sta  resmo
     DA71   A5 27        3798   	lda  resmoh
     DA73   65 6B        3799   	adc  argmoh
     DA75   85 27        3800   	sta  resmoh
     DA77   A5 26        3801   	lda  resho
     DA79   65 6A        3802   	adc  argho
     DA7B   85 26        3803   	sta  resho
     DA7D   66 26        3804   mltpl3  ror  resho
     DA7F   66 27        3805   	ror  resmoh
     DA81   66 28        3806   	ror  resmo
     DA83   66 29        3807   	ror  reslo
     DA85   66 70        3808   	ror  facov
     DA87   98           3809   	tya
     DA88   4A           3810   	lsr  a
     DA89   D0 D6        3811   	bne  mltpl2
     DA8B   60           3812   multrt  rts
                         3813   
     DA8C   85 22        3814   conupk  sta  index1
     DA8E   84 23        3815   	sty  index1+1
     DA90   A0 04        3816   	ldy  #3+addprc
     DA92   B1 22        3817   	lda  (index1),y
     DA94   85 6D        3818   	sta  arglo
     DA96   88           3819   	dey
     DA97   B1 22        3820   	lda  (index),y
     DA99   85 6C        3821   	sta  argmo
     DA9B   88           3822   	dey
     DA9C   B1 22        3823   	lda  (index1),y
     DA9E   85 6B        3824   	sta  argmoh
     DAA0   88           3825   	dey
     DAA1   B1 22        3826   	lda  (index1),y
     DAA3   85 6E        3827   	sta  argsgn
     DAA5   45 66        3828   	eor  facsgn
     DAA7   85 6F        3829   	sta  arisgn
     DAA9   A5 6E        3830   	lda  argsgn
     DAAB   09 80        3831   	ora  #@200

VIC20 BASIC  #901486-04 (C)1981 CBM	CR6502/11 version 20.53.12	4-Nov-87  12:9:18	Page 27-2
CODE19   VBASIC.SRC

Error Addr  Code          Seq   Source statement

     DAAD   85 6A        3832   	sta  argho
     DAAF   88           3833   	dey
     DAB0   B1 22        3834   	lda  (index1),y
     DAB2   85 69        3835   	sta  argexp
     DAB4   A5 61        3836   	lda  facexp
     DAB6   60           3837   	rts
                         3838   
     DAB7   A5 69        3839   muldiv  lda  argexp
     DAB9   F0 1F        3840   mldexp  beq  zeremv
     DABB   18           3841   	clc
     DABC   65 61        3842   	adc  facexp
     DABE   90 04        3843   	bcc  tryoff
     DAC0   30 1D        3844   	bmi  goover
     DAC2   18           3845   	clc
     DAC3   2C           3846   	.byte   $2c
     DAC4   10 14        3847   tryoff  bpl  zeremv
     DAC6   69 80        3848   	adc  #@200
     DAC8   85 61        3849   	sta  facexp
     DACA   D0 03        3850   	bne  *+5
     DACC   4C D8FB      3851   	jmp  zeroml
                         3852   
     DACF   A5 6F        3853   	lda  arisgn
     DAD1   85 66        3854   	sta  facsgn
     DAD3   60           3855   	rts
                         3856   
     DAD4   A5 66        3857   mldvex  lda  facsgn
     DAD6   49 FF        3858   	eor  #@377
     DAD8   30 05        3859   	bmi  goover
     DADA   68           3860   zeremv  pla
     DADB   68           3861   	pla
     DADC   4C D8F7      3862   	jmp  zerofc
                         3863   
     DADF   4C D97E      3864   goover  jmp  overr
                         3865   
     DAE2   20 DC0C      3866   mul10   jsr  movaf
     DAE5   AA           3867   	tax
     DAE6   F0 10        3868   	beq  mul10r
     DAE8   18           3869   	clc
     DAE9   69 02        3870   	adc  #2
     DAEB   B0 F2        3871   	bcs  goover
     DAED   A2 00        3872   finml6  ldx  #0
     DAEF   86 6F        3873   	stx  arisgn
     DAF1   20 D877      3874   	jsr  faddc
     DAF4   E6 61        3875   	inc  facexp
     DAF6   F0 E7        3876   	beq  goover
     DAF8   60           3877   mul10r  rts
                         3878   
     DAF9   84 20 00     3879   tenc     .byte  @204,@40,0,0,0
     DAFC   00 00               
                         3880   

VIC20 BASIC  #901486-04 (C)1981 CBM	CR6502/11 version 20.53.12	4-Nov-87  12:9:18	Page 27-3
CODE19   VBASIC.SRC

Error Addr  Code          Seq   Source statement

     DAFE   20 DC0C      3881   div10   jsr  movaf
     DB01   A9 F9        3882   	lda  #<tenc
     DB03   A0 DA        3883   	ldy  #>tenc
     DB05   A2 00        3884   	ldx  #0
     DB07   86 6F        3885   fdivf   stx  arisgn
     DB09   20 DBA2      3886   	jsr  movfm
     DB0C   4C DB12      3887   	jmp  fdivt
                         3888   
     DB0F   20 DA8C      3889   fdiv    jsr  conupk
     DB12   F0 76        3890   fdivt   beq  dv0err
     DB14   20 DC1B      3891   	jsr  round
     DB17   A9 00        3892   	lda  #0
     DB19   38           3893   	sec
     DB1A   E5 61        3894   	sbc  facexp
     DB1C   85 61        3895   	sta  facexp
     DB1E   20 DAB7      3896   	jsr  muldiv
     DB21   E6 61        3897   	inc  facexp
     DB23   F0 BA        3898   	beq  goover
     DB25   A2 FC        3899   	ldx  #253-addprc
     DB27   A9 01        3900   	lda  #1
     DB29   A4 6A        3901   divide  ldy  argho
     DB2B   C4 62        3902   	cpy  facho
     DB2D   D0 10        3903   	bne  savquo
     DB2F   A4 6B        3904   	ldy  argmoh
     DB31   C4 63        3905   	cpy  facmoh
     DB33   D0 0A        3906   	bne  savquo
     DB35   A4 6C        3907   	ldy  argmo
     DB37   C4 64        3908   	cpy  facmo
     DB39   D0 04        3909   	bne  savquo
     DB3B   A4 6D        3910   	ldy  arglo
     DB3D   C4 65        3911   	cpy  faclo
     DB3F   08           3912   savquo  php
     DB40   2A           3913   	rol  a
     DB41   90 09        3914   	bcc  qshft
     DB43   E8           3915   	inx
     DB44   95 29        3916   	sta  reslo,x
     DB46   F0 32        3917   	beq  ld100
     DB48   10 34        3918   	bpl  divnrm
     DB4A   A9 01        3919   	lda  #1
     DB4C   28           3920   qshft   plp
     DB4D   B0 0E        3921   	bcs  divsub
     DB4F   06 6D        3922   shfarg  asl  arglo
     DB51   26 6C        3923   	rol  argmo
     DB53   26 6B        3924   	rol  argmoh
     DB55   26 6A        3925   	rol  argho
     DB57   B0 E6        3926   	bcs  savquo
     DB59   30 CE        3927   	bmi  divide
     DB5B   10 E2        3928   	bpl  savquo
     DB5D   A8           3929   divsub  tay
     DB5E   A5 6D        3930   	lda  arglo

VIC20 BASIC  #901486-04 (C)1981 CBM	CR6502/11 version 20.53.12	4-Nov-87  12:9:18	Page 27-4
CODE19   VBASIC.SRC

Error Addr  Code          Seq   Source statement

     DB60   E5 65        3931   	sbc  faclo
     DB62   85 6D        3932   	sta  arglo
     DB64   A5 6C        3933   	lda  argmo
     DB66   E5 64        3934   	sbc  facmo
     DB68   85 6C        3935   	sta  argmo
     DB6A   A5 6B        3936   	lda  argmoh
     DB6C   E5 63        3937   	sbc  facmoh
     DB6E   85 6B        3938   	sta  argmoh
     DB70   A5 6A        3939   	lda  argho
     DB72   E5 62        3940   	sbc  facho
     DB74   85 6A        3941   	sta  argho
     DB76   98           3942   	tya
     DB77   4C DB4F      3943   	jmp  shfarg
                         3944   
     DB7A   A9 40        3945   ld100   lda  #@100
     DB7C   D0 CE        3946   	bne  qshft
     DB7E   0A           3947   divnrm  asl  a
     DB7F   0A           3948   	asl  a
     DB80   0A           3949   	asl  a
     DB81   0A           3950   	asl  a
     DB82   0A           3951   	asl  a
     DB83   0A           3952   	asl  a
     DB84   85 70        3953   	sta  facov
     DB86   28           3954   	plp
     DB87   4C DB8F      3955   	jmp  movfr
                         3956   
     DB8A   A2 14        3957   dv0err  ldx  #errdvo
     DB8C   4C C437      3958   	jmp  error
                         3959   ;.end
                         3960   

VIC20 BASIC  #901486-04 (C)1981 CBM	CR6502/11 version 20.53.12	4-Nov-87  12:9:18	Page 28
CODE20   VBASIC.SRC

Error Addr  Code          Seq   Source statement

                         3962   	.subttl CODE20
     DB8F   A5 26        3963   movfr   lda  resho
     DB91   85 62        3964   	sta  facho
     DB93   A5 27        3965   	lda  resmoh
     DB95   85 63        3966   	sta  facmoh
     DB97   A5 28        3967   	lda  resmo
     DB99   85 64        3968   	sta  facmo
     DB9B   A5 29        3969   	lda  reslo
     DB9D   85 65        3970   	sta  faclo
     DB9F   4C D8D7      3971   	jmp  normal
                         3972   
     DBA2   85 22        3973   movfm   sta  index1
     DBA4   84 23        3974   	sty  index1+1
     DBA6   A0 04        3975   	ldy  #3+addprc
     DBA8   B1 22        3976   	lda  (index1),y
     DBAA   85 65        3977   	sta  faclo
     DBAC   88           3978   	dey
     DBAD   B1 22        3979   	lda  (index1),y
     DBAF   85 64        3980   	sta  facmo
     DBB1   88           3981   	dey
     DBB2   B1 22        3982   	lda  (index1),y
     DBB4   85 63        3983   	sta  facmoh
     DBB6   88           3984   	dey
     DBB7   B1 22        3985   	lda  (index1),y
     DBB9   85 66        3986   	sta  facsgn
     DBBB   09 80        3987   	ora  #@200
     DBBD   85 62        3988   	sta  facho
     DBBF   88           3989   	dey
     DBC0   B1 22        3990   	lda  (index1),y
     DBC2   85 61        3991   	sta  facexp
     DBC4   84 70        3992   	sty  facov
     DBC6   60           3993   	rts
                         3994   
     DBC7   A2 5C        3995   mov2f   ldx  #tempf2
     DBC9   2C           3996   	.byte   $2c
     DBCA   A2 57        3997   mov1f   ldx  #tempf1
     DBCC   A0 00        3998   	ldy  #0
     DBCE   F0 04        3999   	beq  movmf
     DBD0   A6 49        4000   movvf   ldx  forpnt
     DBD2   A4 4A        4001   	ldy  forpnt+1
     DBD4   20 DC1B      4002   movmf   jsr  round
     DBD7   86 22        4003   	stx  index1
     DBD9   84 23        4004   	sty  index1+1
     DBDB   A0 04        4005   	ldy  #3+addprc
     DBDD   A5 65        4006   	lda  faclo
     DBDF   91 22        4007   	sta  (index),y
     DBE1   88           4008   	dey
     DBE2   A5 64        4009   	lda  facmo
     DBE4   91 22        4010   	sta  (index),y
     DBE6   88           4011   	dey

VIC20 BASIC  #901486-04 (C)1981 CBM	CR6502/11 version 20.53.12	4-Nov-87  12:9:18	Page 28-1
CODE20   VBASIC.SRC

Error Addr  Code          Seq   Source statement

     DBE7   A5 63        4012   	lda  facmoh
     DBE9   91 22        4013   	sta  (index),y
     DBEB   88           4014   	dey
     DBEC   A5 66        4015   	lda  facsgn
     DBEE   09 7F        4016   	ora  #@177
     DBF0   25 62        4017   	and  facho
     DBF2   91 22        4018   	sta  (index),y
     DBF4   88           4019   	dey
     DBF5   A5 61        4020   	lda  facexp
     DBF7   91 22        4021   	sta  (index),y
     DBF9   84 70        4022   	sty  facov
     DBFB   60           4023   	rts
                         4024   
     DBFC   A5 6E        4025   movfa   lda  argsgn
     DBFE   85 66        4026   movfa1  sta  facsgn
     DC00   A2 05        4027   	ldx  #4+addprc
     DC02   B5 68        4028   movfal  lda  argexp-1,x
     DC04   95 60        4029   	sta  facexp-1,x
     DC06   CA           4030   	dex
     DC07   D0 F9        4031   	bne  movfal
     DC09   86 70        4032   	stx  facov
     DC0B   60           4033   	rts
                         4034   
     DC0C   20 DC1B      4035   movaf   jsr  round
     DC0F   A2 06        4036   movef   ldx  #5+addprc
     DC11   B5 60        4037   movafl  lda  facexp-1,x
     DC13   95 68        4038   	sta  argexp-1,x
     DC15   CA           4039   	dex
     DC16   D0 F9        4040   	bne  movafl
     DC18   86 70        4041   	stx  facov
     DC1A   60           4042   movrts  rts
                         4043   
     DC1B   A5 61        4044   round   lda  facexp
     DC1D   F0 FB        4045   	beq  movrts
     DC1F   06 70        4046   	asl  facov
     DC21   90 F7        4047   	bcc  movrts
     DC23   20 D96F      4048   incrnd  jsr  incfac
     DC26   D0 F2        4049   	bne  movrts
     DC28   4C D938      4050   	jmp  rndshf
                         4051   
     DC2B   A5 61        4052   sign    lda  facexp
     DC2D   F0 09        4053   	beq  signrt
     DC2F   A5 66        4054   fcsign  lda  facsgn
     DC31   2A           4055   fcomps  rol  a
     DC32   A9 FF        4056   	lda  #$ff
     DC34   B0 02        4057   	bcs  signrt
     DC36   A9 01        4058   	lda  #1
     DC38   60           4059   signrt  rts
                         4060   
     DC39   20 DC2B      4061   sgn     jsr  sign

VIC20 BASIC  #901486-04 (C)1981 CBM	CR6502/11 version 20.53.12	4-Nov-87  12:9:18	Page 28-2
CODE20   VBASIC.SRC

Error Addr  Code          Seq   Source statement

     DC3C   85 62        4062   float   sta  facho
     DC3E   A9 00        4063   	lda  #0
     DC40   85 63        4064   	sta  facho+1
     DC42   A2 88        4065   	ldx  #@210
     DC44   A5 62        4066   floats  lda  facho
     DC46   49 FF        4067   	eor  #@377
     DC48   2A           4068   	rol  a
     DC49   A9 00        4069   floatc  lda  #0
     DC4B   85 65        4070   	sta  faclo
     DC4D   85 64        4071   	sta  facmo
     DC4F   86 61        4072   floatb  stx  facexp
     DC51   85 70        4073   	sta  facov
     DC53   85 66        4074   	sta  facsgn
     DC55   4C D8D2      4075   	jmp  fadflt
                         4076   
     DC58   46 66        4077   abs     lsr  facsgn
     DC5A   60           4078   	rts
                         4079   
     DC5B   85 24        4080   fcomp   sta  index2
     DC5D   84 25        4081   fcompn  sty  index2+1
     DC5F   A0 00        4082   	ldy  #0
     DC61   B1 24        4083   	lda  (index2),y
     DC63   C8           4084   	iny
     DC64   AA           4085   	tax
     DC65   F0 C4        4086   	beq  sign
     DC67   B1 24        4087   	lda  (index2),y
     DC69   45 66        4088   	eor  facsgn
     DC6B   30 C2        4089   	bmi  fcsign
     DC6D   E4 61        4090   	cpx  facexp
     DC6F   D0 21        4091   	bne  fcompc
     DC71   B1 24        4092   	lda  (index2),y
     DC73   09 80        4093   	ora  #@200
     DC75   C5 62        4094   	cmp  facho
     DC77   D0 19        4095   	bne  fcompc
     DC79   C8           4096   	iny
     DC7A   B1 24        4097   	lda  (index2),y
     DC7C   C5 63        4098   	cmp  facmoh
     DC7E   D0 12        4099   	bne  fcompc
     DC80   C8           4100   	iny
     DC81   B1 24        4101   	lda  (index2),y
     DC83   C5 64        4102   	cmp  facmo
     DC85   D0 0B        4103   	bne  fcompc
     DC87   C8           4104   	iny
     DC88   A9 7F        4105   	lda  #@177
     DC8A   C5 70        4106   	cmp  facov
     DC8C   B1 24        4107   	lda  (index2),y
     DC8E   E5 65        4108   	sbc  faclo
     DC90   F0 28        4109   	beq  qintrt
     DC92   A5 66        4110   fcompc  lda  facsgn
     DC94   90 02        4111   	bcc  fcompd

VIC20 BASIC  #901486-04 (C)1981 CBM	CR6502/11 version 20.53.12	4-Nov-87  12:9:18	Page 28-3
CODE20   VBASIC.SRC

Error Addr  Code          Seq   Source statement

     DC96   49 FF        4112   	eor  #@377
     DC98   4C DC31      4113   fcompd  jmp  fcomps
                         4114   
                         4115   ;.end
                         4116   

VIC20 BASIC  #901486-04 (C)1981 CBM	CR6502/11 version 20.53.12	4-Nov-87  12:9:18	Page 29
CODE21   VBASIC.SRC

Error Addr  Code          Seq   Source statement

                         4118   	.subttl CODE21
     DC9B   A5 61        4119   qint    lda  facexp
     DC9D   F0 4A        4120   	beq  clrfac
     DC9F   38           4121   	sec
     DCA0   E9 A0        4122   	sbc  #addpr8+@230
     DCA2   24 66        4123   	bit  facsgn
     DCA4   10 09        4124   	bpl  qishft
     DCA6   AA           4125   	tax
     DCA7   A9 FF        4126   	lda  #@377
     DCA9   85 68        4127   	sta  bits
     DCAB   20 D94D      4128   	jsr  negfch
     DCAE   8A           4129   	txa
     DCAF   A2 61        4130   qishft  ldx  #fac
     DCB1   C9 F9        4131   	cmp  #$f9
     DCB3   10 06        4132   	bpl  qint1
     DCB5   20 D999      4133   	jsr  shiftr
     DCB8   84 68        4134   	sty  bits
     DCBA   60           4135   qintrt  rts
                         4136   
     DCBB   A8           4137   qint1   tay
     DCBC   A5 66        4138   	lda  facsgn
     DCBE   29 80        4139   	and  #@200
     DCC0   46 62        4140   	lsr  facho
     DCC2   05 62        4141   	ora  facho
     DCC4   85 62        4142   	sta  facho
     DCC6   20 D9B0      4143   	jsr  rolshf
     DCC9   84 68        4144   	sty  bits
     DCCB   60           4145   	rts
                         4146   
     DCCC   A5 61        4147   int     lda  facexp
     DCCE   C9 A0        4148   	cmp  #addpr8+@230
     DCD0   B0 20        4149   	bcs  intrts
     DCD2   20 DC9B      4150   	jsr  qint
     DCD5   84 70        4151   	sty  facov
     DCD7   A5 66        4152   	lda  facsgn
     DCD9   84 66        4153   	sty  facsgn
     DCDB   49 80        4154   	eor  #@200
     DCDD   2A           4155   	rol  a
     DCDE   A9 A0        4156   	lda  #@230+8
     DCE0   85 61        4157   	sta  facexp
     DCE2   A5 65        4158   	lda  faclo
     DCE4   85 07        4159   	sta  integr
     DCE6   4C D8D2      4160   	jmp  fadflt
                         4161   
     DCE9   85 62        4162   clrfac  sta  facho
     DCEB   85 63        4163   	sta  facmoh
     DCED   85 64        4164   	sta  facmo
     DCEF   85 65        4165   	sta  faclo
     DCF1   A8           4166   	tay
     DCF2   60           4167   intrts  rts

VIC20 BASIC  #901486-04 (C)1981 CBM	CR6502/11 version 20.53.12	4-Nov-87  12:9:18	Page 29-1
CODE21   VBASIC.SRC

Error Addr  Code          Seq   Source statement

                         4168   
     DCF3   A0 00        4169   fin     ldy  #@0
     DCF5   A2 0A        4170   	ldx  #@11+addprc
     DCF7   94 5D        4171   finzlp  sty  deccnt,x
     DCF9   CA           4172   	dex
     DCFA   10 FB        4173   	bpl  finzlp
     DCFC   90 0F        4174   	bcc  findgq
     DCFE   C9 2D        4175   	cmp  #'-
     DD00   D0 04        4176   	bne  qplus
     DD02   86 67        4177   	stx  sgnflg
     DD04   F0 04        4178   	beq  finc
     DD06   C9 2B        4179   qplus   cmp  #'+
     DD08   D0 05        4180   	bne  fin1
     DD0A   20 0073      4181   finc    jsr  chrget
     DD0D   90 5B        4182   findgq  bcc  findig
     DD0F   C9 2E        4183   fin1    cmp  #'.
     DD11   F0 2E        4184   	beq  findp
     DD13   C9 45        4185   	cmp  #'E
     DD15   D0 30        4186   	bne  fine
     DD17   20 0073      4187   	jsr  chrget
     DD1A   90 17        4188   	bcc  fnedg1
     DD1C   C9 AB        4189   	cmp  #minutk
     DD1E   F0 0E        4190   	beq  finec1
     DD20   C9 2D        4191   	cmp  #'-
     DD22   F0 0A        4192   	beq  finec1
     DD24   C9 AA        4193   	cmp  #plustk
     DD26   F0 08        4194   	beq  finec
     DD28   C9 2B        4195   	cmp  #'+
     DD2A   F0 04        4196   	beq  finec
     DD2C   D0 07        4197   	bne  finec2
     DD2E   66 60        4198   finec1  ror  expsgn
     DD30   20 0073      4199   finec   jsr  chrget
     DD33   90 5C        4200   fnedg1  bcc  finedg
     DD35   24 60        4201   finec2  bit  expsgn
     DD37   10 0E        4202   	bpl  fine
     DD39   A9 00        4203   	lda  #0
     DD3B   38           4204   	sec
     DD3C   E5 5E        4205   	sbc  tenexp
     DD3E   4C DD49      4206   	jmp  fine1
                         4207   
     DD41   66 5F        4208   findp   ror  dptflg
     DD43   24 5F        4209   	bit  dptflg
     DD45   50 C3        4210   	bvc  finc
     DD47   A5 5E        4211   fine    lda  tenexp
     DD49   38           4212   fine1   sec
     DD4A   E5 5D        4213   	sbc  deccnt
     DD4C   85 5E        4214   	sta  tenexp
     DD4E   F0 12        4215   	beq  finqng
     DD50   10 09        4216   	bpl  finmul
     DD52   20 DAFE      4217   findiv  jsr  div10

VIC20 BASIC  #901486-04 (C)1981 CBM	CR6502/11 version 20.53.12	4-Nov-87  12:9:18	Page 29-2
CODE21   VBASIC.SRC

Error Addr  Code          Seq   Source statement

     DD55   E6 5E        4218   	inc  tenexp
     DD57   D0 F9        4219   	bne  findiv
     DD59   F0 07        4220   	beq  finqng
     DD5B   20 DAE2      4221   finmul  jsr  mul10
     DD5E   C6 5E        4222   	dec  tenexp
     DD60   D0 F9        4223   	bne  finmul
     DD62   A5 67        4224   finqng  lda  sgnflg
     DD64   30 01        4225   	bmi  negxqs
     DD66   60           4226   	rts
                         4227   
     DD67   4C DFB4      4228   negxqs  jmp  negop
                         4229   
     DD6A   48           4230   findig  pha
     DD6B   24 5F        4231   	bit  dptflg
     DD6D   10 02        4232   	bpl  findg1
     DD6F   E6 5D        4233   	inc  deccnt
     DD71   20 DAE2      4234   findg1  jsr  mul10
     DD74   68           4235   	pla
     DD75   38           4236   	sec
     DD76   E9 30        4237   	sbc  #'0
     DD78   20 DD7E      4238   	jsr  finlog
     DD7B   4C DD0A      4239   	jmp  finc
                         4240   
     DD7E   48           4241   finlog  pha
     DD7F   20 DC0C      4242   	jsr  movaf
     DD82   68           4243   	pla
     DD83   20 DC3C      4244   	jsr  float
     DD86   A5 6E        4245   	lda  argsgn
     DD88   45 66        4246   	eor  facsgn
     DD8A   85 6F        4247   	sta  arisgn
     DD8C   A6 61        4248   	ldx  facexp
     DD8E   4C D86A      4249   	jmp  faddt
                         4250   
     DD91   A5 5E        4251   finedg  lda  tenexp
     DD93   C9 0A        4252   	cmp  #@12
     DD95   90 09        4253   	bcc  mlex10
     DD97   A9 64        4254   	lda  #@144
     DD99   24 60        4255   	bit  expsgn
     DD9B   30 11        4256   	bmi  mlexmi
     DD9D   4C D97E      4257   	jmp  overr
                         4258   
     DDA0   0A           4259   mlex10  asl  a
     DDA1   0A           4260   	asl  a
     DDA2   18           4261   	clc
     DDA3   65 5E        4262   	adc  tenexp
     DDA5   0A           4263   	asl  a
     DDA6   18           4264   	clc
     DDA7   A0 00        4265   	ldy  #0
     DDA9   71 7A        4266   	adc  (txtptr),y
     DDAB   38           4267   	sec

VIC20 BASIC  #901486-04 (C)1981 CBM	CR6502/11 version 20.53.12	4-Nov-87  12:9:18	Page 29-3
CODE21   VBASIC.SRC

Error Addr  Code          Seq   Source statement

     DDAC   E9 30        4268   	sbc  #'0
     DDAE   85 5E        4269   mlexmi  sta  tenexp
     DDB0   4C DD30      4270   	jmp  finec
                         4271   ;.end
                         4272   

VIC20 BASIC  #901486-04 (C)1981 CBM	CR6502/11 version 20.53.12	4-Nov-87  12:9:18	Page 30
CODE22   VBASIC.SRC

Error Addr  Code          Seq   Source statement

                         4274   	.subttl CODE22
     DDB3   9B 3E BC     4275   n0999    .byte  @233,@76,@274,@37,@375
     DDB6   1F FD               
     DDB8   9E 6E 6B     4276   n9999    .byte  @236,@156,@153,@47,@375
     DDBB   27 FD               
     DDBD   9E 6E 6B     4277   nmil     .byte  @236,@156,@153,@50,0
     DDC0   28 00               
                         4278   
     DDC2   A9 71        4279   inprt   lda  #<intxt
     DDC4   A0 C3        4280   	ldy  #>intxt
     DDC6   20 DDDA      4281   	jsr  strou2
     DDC9   A5 3A        4282   	lda  curlin+1
     DDCB   A6 39        4283   	ldx  curlin
     DDCD   85 62        4284   linprt  sta  facho
     DDCF   86 63        4285   	stx  facho+1
     DDD1   A2 90        4286   	ldx  #@220
     DDD3   38           4287   	sec
     DDD4   20 DC49      4288   	jsr  floatc
     DDD7   20 DDDF      4289   	jsr  foutc
     DDDA   4C CB1E      4290   strou2  jmp  strout
                         4291   
     DDDD   A0 01        4292   fout    ldy  #1
     DDDF   A9 20        4293   foutc   lda  #' '
     DDE1   24 66        4294   	bit  facsgn
     DDE3   10 02        4295   	bpl  fout1
     DDE5   A9 2D        4296   	lda  #'-
     DDE7   99 00FF      4297   fout1   sta  fbuffr-1,y
     DDEA   85 66        4298   	sta  facsgn
     DDEC   84 71        4299   	sty  fbufpt
     DDEE   C8           4300   	iny
     DDEF   A9 30        4301   	lda  #'0
     DDF1   A6 61        4302   	ldx  facexp
     DDF3   D0 03        4303   	bne  *+5
     DDF5   4C DF04      4304   	jmp  fout19
                         4305   
     DDF8   A9 00        4306   	lda  #0
     DDFA   E0 80        4307   	cpx  #@200
     DDFC   F0 02        4308   	beq  fout37
     DDFE   B0 09        4309   	bcs  fout7
     DE00   A9 BD        4310   fout37  lda  #<nmil
     DE02   A0 DD        4311   	ldy  #>nmil
     DE04   20 DA28      4312   	jsr  fmult
     DE07   A9 F7        4313   	lda  #250-addpr2-addprc
     DE09   85 5D        4314   fout7   sta  deccnt
     DE0B   A9 B8        4315   fout4   lda  #<n9999
     DE0D   A0 DD        4316   	ldy  #>n9999
     DE0F   20 DC5B      4317   	jsr  fcomp
     DE12   F0 1E        4318   	beq  bigges
     DE14   10 12        4319   	bpl  fout9
     DE16   A9 B3        4320   fout3   lda  #<n0999

VIC20 BASIC  #901486-04 (C)1981 CBM	CR6502/11 version 20.53.12	4-Nov-87  12:9:18	Page 30-1
CODE22   VBASIC.SRC

Error Addr  Code          Seq   Source statement

     DE18   A0 DD        4321   	ldy  #>n0999
     DE1A   20 DC5B      4322   	jsr  fcomp
     DE1D   F0 02        4323   	beq  fout38
     DE1F   10 0E        4324   	bpl  fout5
     DE21   20 DAE2      4325   fout38  jsr  mul10
     DE24   C6 5D        4326   	dec  deccnt
     DE26   D0 EE        4327   	bne  fout3
     DE28   20 DAFE      4328   fout9   jsr  div10
     DE2B   E6 5D        4329   	inc  deccnt
     DE2D   D0 DC        4330   	bne  fout4
     DE2F   20 D849      4331   fout5   jsr  faddh
     DE32   20 DC9B      4332   bigges  jsr  qint
     DE35   A2 01        4333   	ldx  #1
     DE37   A5 5D        4334   	lda  deccnt
     DE39   18           4335   	clc
     DE3A   69 0A        4336   	adc  #addpr2+addprc+7
     DE3C   30 09        4337   	bmi  foutpi
     DE3E   C9 0B        4338   	cmp  #addpr2+addprc+@10
     DE40   B0 06        4339   	bcs  fout6
     DE42   69 FF        4340   	adc  #$ff
     DE44   AA           4341   	tax
     DE45   A9 02        4342   	lda  #2
     DE47   38           4343   foutpi  sec
     DE48   E9 02        4344   fout6   sbc  #2
     DE4A   85 5E        4345   	sta  tenexp
     DE4C   86 5D        4346   	stx  deccnt
     DE4E   8A           4347   	txa
     DE4F   F0 02        4348   	beq  fout39
     DE51   10 13        4349   	bpl  fout8
     DE53   A4 71        4350   fout39  ldy  fbufpt
     DE55   A9 2E        4351   	lda  #'.
     DE57   C8           4352   	iny
     DE58   99 00FF      4353   	sta  fbuffr-1,y
     DE5B   8A           4354   	txa
     DE5C   F0 06        4355   	beq  fout16
     DE5E   A9 30        4356   	lda  #'0
     DE60   C8           4357   	iny
     DE61   99 00FF      4358   	sta  fbuffr-1,y
     DE64   84 71        4359   fout16  sty  fbufpt
     DE66   A0 00        4360   fout8   ldy  #0
     DE68   A2 80        4361   foutim  ldx  #@200
     DE6A   A5 65        4362   fout2   lda  faclo
     DE6C   18           4363   	clc
     DE6D   79 DF19      4364   	adc  foutbl+2+addprc,y
     DE70   85 65        4365   	sta  faclo
     DE72   A5 64        4366   	lda  facmo
     DE74   79 DF18      4367   	adc  foutbl+1+addprc,y
     DE77   85 64        4368   	sta  facmo
     DE79   A5 63        4369   	lda  facmoh
     DE7B   79 DF17      4370   	adc  foutbl+1,y

VIC20 BASIC  #901486-04 (C)1981 CBM	CR6502/11 version 20.53.12	4-Nov-87  12:9:18	Page 30-2
CODE22   VBASIC.SRC

Error Addr  Code          Seq   Source statement

     DE7E   85 63        4371   	sta  facmoh
     DE80   A5 62        4372   	lda  facho
     DE82   79 DF16      4373   	adc  foutbl,y
     DE85   85 62        4374   	sta  facho
     DE87   E8           4375   	inx
     DE88   B0 04        4376   	bcs  fout41
     DE8A   10 DE        4377   	bpl  fout2
     DE8C   30 02        4378   	bmi  fout40
     DE8E   30 DA        4379   fout41  bmi  fout2
     DE90   8A           4380   fout40  txa
     DE91   90 04        4381   	bcc  foutyp
     DE93   49 FF        4382   	eor  #@377
     DE95   69 0A        4383   	adc  #@12
     DE97   69 2F        4384   foutyp  adc  #@57
     DE99   C8           4385   	iny
     DE9A   C8           4386   	iny
     DE9B   C8           4387   	iny
     DE9C   C8           4388   	iny
     DE9D   84 47        4389   	sty  fdecpt
     DE9F   A4 71        4390   	ldy  fbufpt
     DEA1   C8           4391   	iny
     DEA2   AA           4392   	tax
     DEA3   29 7F        4393   	and  #@177
     DEA5   99 00FF      4394   	sta  fbuffr-1,y
     DEA8   C6 5D        4395   	dec  deccnt
     DEAA   D0 06        4396   	bne  stxbuf
     DEAC   A9 2E        4397   	lda  #'.
     DEAE   C8           4398   	iny
     DEAF   99 00FF      4399   	sta  fbuffr-1,y
     DEB2   84 71        4400   stxbuf  sty  fbufpt
     DEB4   A4 47        4401   	ldy  fdecpt
     DEB6   8A           4402   	txa
     DEB7   49 FF        4403   	eor  #@377
     DEB9   29 80        4404   	and  #@200
     DEBB   AA           4405   	tax
     DEBC   C0 24        4406   	cpy  #fdcend-foutbl
     DEBE   F0 04        4407   	beq  fouldy
     DEC0   C0 3C        4408   	cpy  #timend-foutbl
     DEC2   D0 A6        4409   	bne  fout2
     DEC4   A4 71        4410   fouldy  ldy  fbufpt
     DEC6   B9 00FF      4411   fout11  lda  fbuffr-1,y
     DEC9   88           4412   	dey
     DECA   C9 30        4413   	cmp  #'0
     DECC   F0 F8        4414   	beq  fout11
     DECE   C9 2E        4415   	cmp  #'.
     DED0   F0 01        4416   	beq  fout12
     DED2   C8           4417   	iny
     DED3   A9 2B        4418   fout12  lda  #'+
     DED5   A6 5E        4419   	ldx  tenexp
     DED7   F0 2E        4420   	beq  fout17

VIC20 BASIC  #901486-04 (C)1981 CBM	CR6502/11 version 20.53.12	4-Nov-87  12:9:18	Page 30-3
CODE22   VBASIC.SRC

Error Addr  Code          Seq   Source statement

     DED9   10 08        4421   	bpl  fout14
     DEDB   A9 00        4422   	lda  #0
     DEDD   38           4423   	sec
     DEDE   E5 5E        4424   	sbc  tenexp
     DEE0   AA           4425   	tax
                         4426   ;.end
                         4427   

VIC20 BASIC  #901486-04 (C)1981 CBM	CR6502/11 version 20.53.12	4-Nov-87  12:9:18	Page 31
CODE23   VBASIC.SRC

Error Addr  Code          Seq   Source statement

                         4429   	.subttl CODE23
     DEE1   A9 2D        4430   	lda  #'-
     DEE3   99 0101      4431   fout14  sta  fbuffr+1,y
     DEE6   A9 45        4432   	lda  #'E
     DEE8   99 0100      4433   	sta  fbuffr,y
     DEEB   8A           4434   	txa
     DEEC   A2 2F        4435   	ldx  #@57
     DEEE   38           4436   	sec
     DEEF   E8           4437   fout15  inx
     DEF0   E9 0A        4438   	sbc  #@12
     DEF2   B0 FB        4439   	bcs  fout15
     DEF4   69 3A        4440   	adc  #@72
     DEF6   99 0103      4441   	sta  fbuffr+3,y
     DEF9   8A           4442   	txa
     DEFA   99 0102      4443   	sta  fbuffr+2,y
     DEFD   A9 00        4444   	lda  #0
     DEFF   99 0104      4445   	sta  fbuffr+4,y
     DF02   F0 08        4446   	beq  fout20
     DF04   99 00FF      4447   fout19  sta  fbuffr-1,y
     DF07   A9 00        4448   fout17  lda  #0
     DF09   99 0100      4449   	sta  fbuffr,y
     DF0C   A9 00        4450   fout20  lda  #<fbuffr
     DF0E   A0 01        4451   	ldy  #>fbuffr
     DF10   60           4452   	rts
                         4453   
     DF11   80 00        4454   fhalf    .byte  @200,0
     DF13   00 00 00     4455   zero     .byte  0,0,0
     DF16   FA 0A 1F     4456   foutbl   .byte  @372,@12,@37,0,0
     DF19   00 00               
     DF1B   98 96 80     4457   	.byte   @230,@226,@200,@377
     DF1E   FF                  
     DF1F   F0 BD C0     4458   	.byte   @360,@275,@300,0
     DF22   00                  
     DF23   01 86 A0     4459   	.byte   1,@206,@240,@377
     DF26   FF                  
     DF27   FF D8 F0     4460   	.byte   @377,@330,@360,0,0
     DF2A   00 00               
     DF2C   03 E8 FF     4461   	.byte   3,@350,@377,@377
     DF2F   FF                  
     DF30   FF 9C 00     4462   	.byte   @377,@234,0,0,0,@12
     DF33   00 00 0A            
     DF36   FF FF FF     4463   	.byte   @377,@377,@377,@377
     DF39   FF                  
     DF3A   FF DF 0A     4464   fdcend   .byte  @377,@337,@12,@200
     DF3D   80                  
     DF3E   00 03 4B     4465   	.byte   0,3,@113,@300,@377
     DF41   C0 FF               
     DF43   FF 73 60     4466   	.byte   @377,@163,@140,0,0
     DF46   00 00               
     DF48   0E 10 FF     4467   	.byte   @16,@20,@377,@377

VIC20 BASIC  #901486-04 (C)1981 CBM	CR6502/11 version 20.53.12	4-Nov-87  12:9:18	Page 31-1
CODE23   VBASIC.SRC

Error Addr  Code          Seq   Source statement

     DF4B   FF                  
     DF4C   FD A8 00     4468   	.byte   @375,@250,0,0,0,@74
     DF4F   00 00 3C            
     DF52                4469   timend
                         4470   
     DF52   =DF53        4471   cksmc0   * = *+1	  ;  $c000 8k rom checksum adj
     DF53   =DF71        4472   patchs   * = *+30	 ;  patch area
                         4473   
     DF71   20 DC0C      4474   sqr     jsr  movaf
     DF74   A9 11        4475   	lda  #<fhalf
     DF76   A0 DF        4476   	ldy  #>fhalf
     DF78   20 DBA2      4477   	jsr  movfm
     DF7B   F0 70        4478   fpwrt   beq  exp
     DF7D   A5 69        4479   	lda  argexp
     DF7F   D0 03        4480   	bne  fpwrt1
     DF81   4C D8F9      4481   	jmp  zerof1
                         4482   
     DF84   A2 4E        4483   fpwrt1  ldx  #<tempf3
     DF86   A0 00        4484   	ldy  #>tempf3
     DF88   20 DBD4      4485   	jsr  movmf
     DF8B   A5 6E        4486   	lda  argsgn
     DF8D   10 0F        4487   	bpl  fpwr1
     DF8F   20 DCCC      4488   	jsr  int
     DF92   A9 4E        4489   	lda  #<tempf3
     DF94   A0 00        4490   	ldy  #>tempf3
     DF96   20 DC5B      4491   	jsr  fcomp
     DF99   D0 03        4492   	bne  fpwr1
     DF9B   98           4493   	tya
     DF9C   A4 07        4494   	ldy  integr
     DF9E   20 DBFE      4495   fpwr1   jsr  movfa1
     DFA1   98           4496   	tya
     DFA2   48           4497   	pha
     DFA3   20 D9EA      4498   	jsr  log
     DFA6   A9 4E        4499   	lda  #<tempf3
     DFA8   A0 00        4500   	ldy  #>tempf3
     DFAA   20 DA28      4501   	jsr  fmult
     DFAD   20 DFED      4502   	jsr  exp
     DFB0   68           4503   	pla
     DFB1   4A           4504   	lsr  a
     DFB2   90 0A        4505   	bcc  negrts
     DFB4   A5 61        4506   negop   lda  facexp
     DFB6   F0 06        4507   	beq  negrts
     DFB8   A5 66        4508   	lda  facsgn
     DFBA   49 FF        4509   	eor  #@377
     DFBC   85 66        4510   	sta  facsgn
     DFBE   60           4511   negrts  rts
                         4512   ;.end
                         4513   

VIC20 BASIC  #901486-04 (C)1981 CBM	CR6502/11 version 20.53.12	4-Nov-87  12:9:18	Page 32
CODE24   VBASIC.SRC

Error Addr  Code          Seq   Source statement

                         4515   	.subttl CODE24
     DFBF   81 38 AA     4516   logeb2   .byte  @201,@70,@252,@73,@51
     DFC2   3B 29               
                         4517   
     DFC4   07 71 34     4518   expcon   .byte  7,@161,@64,@130,@76
     DFC7   58 3E               
     DFC9   56 74 16     4519   	.byte   @126,@164,@26,@176
     DFCC   7E                  
     DFCD   B3 1B 77     4520   	.byte   @263,@33,@167,@57
     DFD0   2F                  
     DFD1   EE E3 85     4521   	.byte   @356,@343,@205,@172
     DFD4   7A                  
     DFD5   1D 84 1C     4522   	.byte   @35,@204,@34,@52
     DFD8   2A                  
     DFD9   7C 63 59     4523   	.byte   @174,@143,@131,@130
     DFDC   58                  
     DFDD   0A 7E 75     4524   	.byte   @12,@176,@165,@375
     DFE0   FD                  
     DFE1   E7 C6 80     4525   	.byte   @347,@306,@200,@61
     DFE4   31                  
     DFE5   72 18 10     4526   	.byte   @162,@30,@20,@201
     DFE8   81                  
     DFE9   00 00 00     4527   	.byte   0,0,0,0
     DFEC   00                  
                         4528   
     DFED   A9 BF        4529   exp     lda  #<logeb2
     DFEF   A0 DF        4530   	ldy  #>logeb2
     DFF1   20 DA28      4531   	jsr  fmult
     DFF4   A5 70        4532   	lda  facov
     DFF6   69 50        4533   	adc  #@120
     DFF8   90 03        4534   	bcc  stold
     DFFA   20 DC23      4535   	jsr  incrnd
                         4536   ;.end
                         4537   

VIC20 BASIC  #901486-04 (C)1981 CBM	CR6502/11 version 20.53.12	4-Nov-87  12:9:18	Page 33
CODE25   VBASIC.SRC

Error Addr  Code          Seq   Source statement

                         4539   	.subttl CODE25
     DFFD   85 56        4540   stold   sta  oldov
     DFFF   20 DC0F      4541   	jsr  movef
     E002   A5 61        4542   	lda  facexp
     E004   C9 88        4543   	cmp  #@210
     E006   90 03        4544   	bcc  exp1
     E008   20 DAD4      4545   gomldv  jsr  mldvex
     E00B   20 DCCC      4546   exp1    jsr  int
     E00E   A5 07        4547   	lda  integr
     E010   18           4548   	clc
     E011   69 81        4549   	adc  #@201
     E013   F0 F3        4550   	beq  gomldv
     E015   38           4551   	sec
     E016   E9 01        4552   	sbc  #1
     E018   48           4553   	pha
     E019   A2 05        4554   	ldx  #4+addprc
     E01B   B5 69        4555   swaplp  lda  argexp,x
     E01D   B4 61        4556   	ldy  facexp,x
     E01F   95 61        4557   	sta  facexp,x
     E021   94 69        4558   	sty  argexp,x
     E023   CA           4559   	dex
     E024   10 F5        4560   	bpl  swaplp
     E026   A5 56        4561   	lda  oldov
     E028   85 70        4562   	sta  facov
     E02A   20 D853      4563   	jsr  fsubt
     E02D   20 DFB4      4564   	jsr  negop
     E030   A9 C4        4565   	lda  #<expcon
     E032   A0 DF        4566   	ldy  #>expcon
     E034   20 E056      4567   	jsr  poly
     E037   A9 00        4568   	lda  #0
     E039   85 6F        4569   	sta  arisgn
     E03B   68           4570   	pla
     E03C   20 DAB9      4571   	jsr  mldexp
     E03F   60           4572   	rts
                         4573   
     E040   85 71        4574   polyx   sta  polypt
     E042   84 72        4575   	sty  polypt+1
     E044   20 DBCA      4576   	jsr  mov1f
     E047   A9 57        4577   	lda  #tempf1
     E049   20 DA28      4578   	jsr  fmult
     E04C   20 E05A      4579   	jsr  poly1
     E04F   A9 57        4580   	lda  #<tempf1
     E051   A0 00        4581   	ldy  #>tempf1
     E053   4C DA28      4582   	jmp  fmult
                         4583   
     E056   85 71        4584   poly    sta  polypt
     E058   84 72        4585   	sty  polypt+1
     E05A   20 DBC7      4586   poly1   jsr  mov2f
     E05D   B1 71        4587   	lda  (polypt),y
     E05F   85 67        4588   	sta  degree

VIC20 BASIC  #901486-04 (C)1981 CBM	CR6502/11 version 20.53.12	4-Nov-87  12:9:18	Page 33-1
CODE25   VBASIC.SRC

Error Addr  Code          Seq   Source statement

     E061   A4 71        4589   	ldy  polypt
     E063   C8           4590   	iny
     E064   98           4591   	tya
     E065   D0 02        4592   	bne  poly3
     E067   E6 72        4593   	inc  polypt+1
     E069   85 71        4594   poly3   sta  polypt
     E06B   A4 72        4595   	ldy  polypt+1
     E06D   20 DA28      4596   poly2   jsr  fmult
     E070   A5 71        4597   	lda  polypt
     E072   A4 72        4598   	ldy  polypt+1
     E074   18           4599   	clc
     E075   69 05        4600   	adc  #4+addprc
     E077   90 01        4601   	bcc  poly4
     E079   C8           4602   	iny
     E07A   85 71        4603   poly4   sta  polypt
     E07C   84 72        4604   	sty  polypt+1
     E07E   20 D867      4605   	jsr  fadd
     E081   A9 5C        4606   	lda  #<tempf2
     E083   A0 00        4607   	ldy  #>tempf2
     E085   C6 67        4608   	dec  degree
     E087   D0 E4        4609   	bne  poly2
     E089   60           4610   	rts
                         4611   
     E08A   98 35 44     4612   rmulc    .byte  @230,@65,@104,@172,0
     E08D   7A 00               
     E08F   68 28 B1     4613   raddc    .byte  @150,@50,@261,@106,0
     E092   46 00               
                         4614   
     E094   20 DC2B      4615   rnd     jsr  sign
     E097   30 37        4616   	bmi  rnd1
     E099   D0 20        4617   	bne  qsetnr
     E09B   20 FFF3      4618   	jsr  rdbas
     E09E   86 22        4619   	stx  index1
     E0A0   84 23        4620   	sty  index1+1
     E0A2   A0 04        4621   	ldy  #4
     E0A4   B1 22        4622   	lda  (index1),y
     E0A6   85 62        4623   	sta  facho
     E0A8   C8           4624   	iny
     E0A9   B1 22        4625   	lda  (index1),y
     E0AB   85 64        4626   	sta  facmo
     E0AD   A0 08        4627   	ldy  #8
     E0AF   B1 22        4628   	lda  (index1),y
     E0B1   85 63        4629   	sta  facmoh
     E0B3   C8           4630   	iny
     E0B4   B1 22        4631   	lda  (index1),y
     E0B6   85 65        4632   	sta  faclo
     E0B8   4C E0E0      4633   	jmp  strnex
                         4634   
     E0BB   A9 8B        4635   qsetnr  lda  #<rndx
     E0BD   A0 00        4636   	ldy  #>rndx

VIC20 BASIC  #901486-04 (C)1981 CBM	CR6502/11 version 20.53.12	4-Nov-87  12:9:18	Page 33-2
CODE25   VBASIC.SRC

Error Addr  Code          Seq   Source statement

     E0BF   20 DBA2      4637   	jsr  movfm
     E0C2   A9 8A        4638   	lda  #<rmulc
     E0C4   A0 E0        4639   	ldy  #>rmulc
     E0C6   20 DA28      4640   	jsr  fmult
     E0C9   A9 8F        4641   	lda  #<raddc
     E0CB   A0 E0        4642   	ldy  #>raddc
     E0CD   20 D867      4643   	jsr  fadd
     E0D0   A6 65        4644   rnd1    ldx  faclo
     E0D2   A5 62        4645   	lda  facho
     E0D4   85 65        4646   	sta  faclo
     E0D6   86 62        4647   	stx  facho
     E0D8   A6 63        4648   	ldx  facmoh
     E0DA   A5 64        4649   	lda  facmo
     E0DC   85 63        4650   	sta  facmoh
     E0DE   86 64        4651   	stx  facmo
     E0E0   A9 00        4652   strnex  lda  #0
     E0E2   85 66        4653   	sta  facsgn
     E0E4   A5 61        4654   	lda  facexp
     E0E6   85 70        4655   	sta  facov
     E0E8   A9 80        4656   	lda  #@200
     E0EA   85 61        4657   	sta  facexp
     E0EC   20 D8D7      4658   	jsr  normal
     E0EF   A2 8B        4659   	ldx  #<rndx
     E0F1   A0 00        4660   	ldy  #>rndx
     E0F3   4C DBD4      4661   gmovmf  jmp  movmf
                         4662   
                         4663   ;.end
                         4664   

VIC20 BASIC  #901486-04 (C)1981 CBM	CR6502/11 version 20.53.12	4-Nov-87  12:9:18	Page 34
CODE26   VBASIC.SRC

Error Addr  Code          Seq   Source statement

                         4666   	.subttl CODE26
                         4667   ;most references to kernal are defined here
                         4668   ;
     E0F6   C9 F0        4669   erexit  cmp  #$f0       ; check for special case
     E0F8   D0 07        4670   	bne  erexix      ; top of memory has changed
     E0FA   84 38        4671   	sty  memsiz+1
     E0FC   86 37        4672   	stx  memsiz
     E0FE   4C C663      4673   	jmp  cleart     ; act as if he typed clear
                         4674   
     E101   AA           4675   erexix  tax     ; set termination flags
     E102   D0 02        4676   	bne  erexiy
     E104   A2 1E        4677   	ldx  #erbrk     ; break error
     E106   4C C437      4678   erexiy  jmp  error      ; normal error
                                
                                
                                
                                
                                
            =FFCC        4680   clschn   =$ffcc
                                
                                
                                
                                
                                
     E109   20 FFD2      4682   outch   jsr  $ffd2
     E10C   B0 E8        4683   	bcs  erexit
     E10E   60           4684   	rts
                                
                                
                                
                                
                                
     E10F   20 FFCF      4686   inchr   jsr  $ffcf
     E112   B0 E2        4687   	bcs  erexit
     E114   60           4688   	rts
                                
                                
                                
                                
                                
            =FFE7        4690   ccall    =$ffe7
                                
                                
                                
                                
                                
            =FFDB        4692   settim   =$ffdb
            =FFDE        4693   rdtim    =$ffde
                                
                                

VIC20 BASIC  #901486-04 (C)1981 CBM	CR6502/11 version 20.53.12	4-Nov-87  12:9:18	Page 34-1
CODE26   VBASIC.SRC

Error Addr  Code          Seq   Source statement

                                
                                
                                
     E115   20 FFC9      4695   coout   jsr  $ffc9
     E118   B0 DC        4696   	bcs  erexit
     E11A   60           4697   	rts
                                
                                
                                
                                
                                
     E11B   20 FFC6      4699   coin    jsr  $ffc6
     E11E   B0 D6        4700   	bcs  erexit
     E120   60           4701   	rts
                                
                                
                                
                                
                                
            =FFB7        4703   readst   =$ffb7
                                
                                
                                
                                
                                
     E121   20 FFE4      4705   cgetl   jsr  $ffe4
     E124   B0 D0        4706   	bcs  erexit
     E126   60           4707   	rts
                                
                                
                                
                                
                                
            =FFF3        4709   rdbas    =$fff3
                                
                                
                                
                                
                                
            =FF90        4711   setmsg   =$ff90
                                
                                
                                
                                
                                
            =FFF0        4713   plot     =$fff0
                                
                                
                                
                                

VIC20 BASIC  #901486-04 (C)1981 CBM	CR6502/11 version 20.53.12	4-Nov-87  12:9:18	Page 34-2
CODE26   VBASIC.SRC

Error Addr  Code          Seq   Source statement

                                
     E127   20 CD8A      4715   csys    jsr  frmnum     ; eval formula
     E12A   20 D7F7      4716   	jsr  getadr     ; convert to int. addr
     E12D   A9 E1        4717   	lda  #>csysrz   ; push return address
     E12F   48           4718   	pha
     E130   A9 43        4719   	lda  #<csysrz
     E132   48           4720   	pha
     E133   AD 030F      4721   	lda  spreg      ; status reg
     E136   48           4722   	pha
     E137   AD 030C      4723   	lda  sareg      ; load 6502 regs
     E13A   AE 030D      4724   	ldx  sxreg
     E13D   AC 030E      4725   	ldy  syreg
     E140   28           4726   	plp     ; load 6502 status reg
     E141   6C 0014      4727   	jmp  (linnum)   ; go do it
                         4728   
            =E143        4729   csysrz	= *-1   ; return to here
                         4730   
     E144   08           4731   	php     ; save status reg
     E145   8D 030C      4732   	sta  sareg      ; save 6502 regs
     E148   8E 030D      4733   	stx  sxreg
     E14B   8C 030E      4734   	sty  syreg
     E14E   68           4735   	pla     ; get status reg
     E14F   8D 030F      4736   	sta  spreg
     E152   60           4737   	rts     ; return to system
                                
                                
                                
                                
                                
     E153   20 E1D1      4739   csave   jsr  plsv       ; parse parms
     E156   A6 2D        4740   	ldx  vartab     ; end save addr
     E158   A4 2E        4741   	ldy  vartab+1
     E15A   A9 2B        4742   	lda  #<txttab   ; indirect with start address
     E15C   20 FFD8      4743   	jsr  $ffd8      ; save it
     E15F   B0 95        4744   	bcs  erexit
     E161   60           4745   	rts
                                
                                
                                
                                
                                
     E162   A9 01        4747   cverf   lda  #1	 ; verify flag
     E164   2C           4748   	.byte   $2c    ; skip two bytes
                                
                                
                                
                                
                                
     E165   A9 00        4750   cload   lda  #0	 ; load flag
     E167   85 0A        4751   	sta  verck

VIC20 BASIC  #901486-04 (C)1981 CBM	CR6502/11 version 20.53.12	4-Nov-87  12:9:18	Page 34-3
CODE26   VBASIC.SRC

Error Addr  Code          Seq   Source statement

     E169   20 E1D1      4752   	jsr  plsv       ; parse parameters
                         4753   ;
     E16C                4754   cld10
                         4755   ;	jsr $ffe1	;check run/stop
                         4756   ;	cmp #$ff	;done yet?
                         4757   ;	bne cld10	;still bouncing
                         4758   
     E16C   A5 0A        4759   	lda  verck
     E16E   A6 2B        4760   	ldx  txttab     ; .x and .y have alt...
     E170   A4 2C        4761   	ldy  txttab+1   ; ...load address
     E172   20 FFD5      4762   	jsr  $ffd5      ; load it
     E175   B0 57        4763   	bcs  jerxit     ; problems
                         4764   ;
     E177   A5 0A        4765   	lda  verck
     E179   F0 1A        4766   	beq  cld50      ; was load
                         4767   ;
                         4768   ;finish verify
                         4769   ;
     E17B   A2 1C        4770   	ldx  #ervfy     ; assume error
     E17D   20 FFB7      4771   	jsr  $ffb7      ; read status
     E180   29 10        4772   	and  #$10       ; check error
     E182   F0 03        4773   	beq  *+5
     E184   4C C437      4774   	jmp  error
                         4775   ;
                         4776   ;print verify 'ok' if direct
                         4777   ;
     E187   A5 7A        4778   	lda  txtptr
     E189   C9 02        4779   	cmp  #bufpag
     E18B   F0 07        4780   	beq  cld20
     E18D   A9 64        4781   	lda  #<okmsg
     E18F   A0 C3        4782   	ldy  #>okmsg
     E191   4C CB1E      4783   	jmp  strout
                         4784   ;
     E194   60           4785   cld20   rts
                                
                                
                                
                                
                                
                         4787   ;
                         4788   ;finish load
                         4789   ;
     E195   20 FFB7      4790   cld50   jsr  $ffb7      ; read status
     E198   29 BF        4791   	and  #$ff-$40   ; clear e.o.i.
     E19A   F0 05        4792   	beq  cld60      ; was o.k.
     E19C   A2 1D        4793   	ldx  #erload
     E19E   4C C437      4794   	jmp  error
                         4795   ;
     E1A1   A5 7B        4796   cld60   lda  txtptr+1
     E1A3   C9 02        4797   	cmp  #bufpag    ; direct?

VIC20 BASIC  #901486-04 (C)1981 CBM	CR6502/11 version 20.53.12	4-Nov-87  12:9:18	Page 34-4
CODE26   VBASIC.SRC

Error Addr  Code          Seq   Source statement

     E1A5   D0 0E        4798   	bne  cld70      ; no...
                         4799   ;
     E1A7   86 2D        4800   	stx  vartab
     E1A9   84 2E        4801   	sty  vartab+1   ; end load address
     E1AB   A9 76        4802   	lda  #<reddy
     E1AD   A0 C3        4803   	ldy  #>reddy
     E1AF   20 CB1E      4804   	jsr  strout
     E1B2   4C C52A      4805   	jmp  fini
                         4806   ;
                         4807   ;program load
                         4808   ;
     E1B5   20 C68E      4809   cld70   jsr  stxtpt
     E1B8   4C E476      4810   	jmp  plink      ; ************patch to link offset progs*****
                                
                                
                                
                                
                                
     E1BB   20 E216      4812   copen   jsr  paoc       ; parse statement
     E1BE   20 FFC0      4813   	jsr  $ffc0      ; open it
     E1C1   B0 0B        4814   	bcs  jerxit     ; bad stuff or memsiz change
     E1C3   60           4815   	rts     ; a.o.k.
                                
                                
                                
                                
                                
     E1C4   20 E216      4817   cclos   jsr  paoc       ; parse statement
     E1C7   A5 49        4818   	lda  andmsk     ; get la
     E1C9   20 FFC3      4819   	jsr  $ffc3      ; close it
     E1CC   90 C6        4820   	bcc  cld20      ; it's okay...no memsize change
                         4821   ;
     E1CE   4C E0F6      4822   jerxit  jmp  erexit
                                
                                
                                
                                
                                
                         4824   ;
                         4825   ;parse load and save commands
                         4826   ;
     E1D1                4827   plsv
                         4828   ;default file name
                         4829   ;
     E1D1   A9 00        4830   	lda  #0	 ; length=0
     E1D3   20 FFBD      4831   	jsr  $ffbd
                         4832   ;
                         4833   ;default device #
                         4834   ;
     E1D6   A2 01        4835   	ldx  #1	 ; device #1

VIC20 BASIC  #901486-04 (C)1981 CBM	CR6502/11 version 20.53.12	4-Nov-87  12:9:18	Page 34-5
CODE26   VBASIC.SRC

Error Addr  Code          Seq   Source statement

     E1D8   A0 00        4836   	ldy  #0	 ; command 0
     E1DA   20 FFBA      4837   	jsr  $ffba
                         4838   ;
     E1DD   20 E203      4839   	jsr  paoc20     ; by-pass junk
     E1E0   20 E254      4840   	jsr  paoc15     ; get/set file name
     E1E3   20 E203      4841   	jsr  paoc20     ; by-pass junk
     E1E6   20 E1FD      4842   	jsr  plsv7      ; get ',fa'
     E1E9   A0 00        4843   	ldy  #0	 ; command 0
     E1EB   86 49        4844   	stx  andmsk
     E1ED   20 FFBA      4845   	jsr  $ffba
     E1F0   20 E203      4846   	jsr  paoc20     ; by-pass junk
     E1F3   20 E1FD      4847   	jsr  plsv7      ; get ',sa'
     E1F6   8A           4848   	txa     ; new command
     E1F7   A8           4849   	tay
     E1F8   A6 49        4850   	ldx  andmsk     ; device #
     E1FA   4C FFBA      4851   	jmp  $ffba
                                
                                
                                
                                
                                
                         4853   ;look for comma followed by byte
     E1FD   20 E20B      4854   plsv7   jsr  paoc30
     E200   4C D79E      4855   	jmp  getbyt
                                
                                
                                
                                
                                
                         4857   ;skip return if next char is end
                         4858   ;
     E203   20 0079      4859   paoc20  jsr  chrgot
     E206   D0 02        4860   	bne  paocx
     E208   68           4861   	pla
     E209   68           4862   	pla
     E20A   60           4863   paocx   rts
                                
                                
                                
                                
                                
                         4865   ;check for comma and good stuff
                         4866   ;
     E20B   20 CEFD      4867   paoc30  jsr  chkcom     ; check comma
     E20E   20 0079      4868   paoc32  jsr  chrgot     ; get current
     E211   D0 F7        4869   	bne  paocx      ; is o.k.
     E213   4C CF08      4870   paoc40	jmp snerr 	;bad...end of line
                                
                                
                                

VIC20 BASIC  #901486-04 (C)1981 CBM	CR6502/11 version 20.53.12	4-Nov-87  12:9:18	Page 34-6
CODE26   VBASIC.SRC

Error Addr  Code          Seq   Source statement

                                
                                
                         4872   ;parse open/close
                         4873   ;
     E216   A9 00        4874   paoc    lda  #0
     E218   20 FFBD      4875   	jsr  $ffbd      ; default file name
                         4876   ;
     E21B   20 E20E      4877   	jsr  paoc32     ; must got something
     E21E   20 D79E      4878   	jsr  getbyt     ; get la
     E221   86 49        4879   	stx  andmsk
     E223   8A           4880   	txa
     E224   A2 01        4881   	ldx  #1	 ; default device
     E226   A0 00        4882   	ldy  #0	 ; default command
     E228   20 FFBA      4883   	jsr  $ffba      ; store it
     E22B   20 E203      4884   	jsr  paoc20     ; skip junk
     E22E   20 E1FD      4885   	jsr  plsv7
     E231   86 4A        4886   	stx  eormsk
     E233   A0 00        4887   	ldy  #0	 ; default command
     E235   A5 49        4888   	lda  andmsk     ; get la
     E237   E0 03        4889   	cpx  #3
     E239   90 01        4890   	bcc  paoc5
     E23B   88           4891   	dey     ; default ieee to $ff
     E23C   20 FFBA      4892   paoc5   jsr  $ffba      ; store them
     E23F   20 E203      4893   	jsr  paoc20     ; skip junk
     E242   20 E1FD      4894   	jsr  plsv7      ; get sa
     E245   8A           4895   	txa
     E246   A8           4896   	tay
     E247   A6 4A        4897   	ldx  eormsk
     E249   A5 49        4898   	lda  andmsk
     E24B   20 FFBA      4899   	jsr  $ffba      ; set up real eveything
     E24E   20 E203      4900   paoc7   jsr  paoc20
     E251   20 E20B      4901   	jsr  paoc30
     E254   20 CD9E      4902   paoc15  jsr  frmevl
     E257   20 D6A3      4903   	jsr  frestr     ; length in .a
     E25A   A6 22        4904   	ldx  index1
     E25C   A4 23        4905   	ldy  index1+1
     E25E   4C FFBD      4906   	jmp  $ffbd
                         4907   
                         4908   ;.end
                         4909   ; rsr 8/10/80 - change sys command
                         4910   ; rsr 8/26/80 - add open&close memsiz detect
                         4911   ; rsr 10/7/80 - change load (remove run wait)
                         4912   ; rsr 3/06/81 - fix program load for offset programs
                         4913   

VIC20 BASIC  #901486-04 (C)1981 CBM	CR6502/11 version 20.53.12	4-Nov-87  12:9:18	Page 35
TRIG   VBASIC.SRC

Error Addr  Code          Seq   Source statement

                         4915   	.subttl TRIG
     E261   A9 DD        4916   cos     lda  #<pi2
     E263   A0 E2        4917   	ldy  #>pi2
     E265   20 D867      4918   	jsr  fadd
     E268   20 DC0C      4919   sin     jsr  movaf
     E26B   A9 E2        4920   	lda  #<twopi
     E26D   A0 E2        4921   	ldy  #>twopi
     E26F   A6 6E        4922   	ldx  argsgn
     E271   20 DB07      4923   	jsr  fdivf
     E274   20 DC0C      4924   	jsr  movaf
     E277   20 DCCC      4925   	jsr  int
     E27A   A9 00        4926   	lda  #0
     E27C   85 6F        4927   	sta  arisgn
     E27E   20 D853      4928   	jsr  fsubt
     E281   A9 E7        4929   	lda  #<fr4
     E283   A0 E2        4930   	ldy  #>fr4
     E285   20 D850      4931   	jsr  fsub
     E288   A5 66        4932   	lda  facsgn
     E28A   48           4933   	pha
     E28B   10 0D        4934   	bpl  sin1
     E28D   20 D849      4935   	jsr  faddh
     E290   A5 66        4936   	lda  facsgn
     E292   30 09        4937   	bmi  sin2
     E294   A5 12        4938   	lda  tansgn
     E296   49 FF        4939   	eor  #$ff
     E298   85 12        4940   	sta  tansgn
     E29A   20 DFB4      4941   sin1    jsr  negop
     E29D   A9 E7        4942   sin2    lda  #<fr4
     E29F   A0 E2        4943   	ldy  #>fr4
     E2A1   20 D867      4944   	jsr  fadd
     E2A4   68           4945   	pla
     E2A5   10 03        4946   	bpl  sin3
     E2A7   20 DFB4      4947   	jsr  negop
     E2AA   A9 EC        4948   sin3    lda  #<sincon
     E2AC   A0 E2        4949   	ldy  #>sincon
     E2AE   4C E040      4950   	jmp  polyx
                         4951   
     E2B1   20 DBCA      4952   tan     jsr  mov1f
     E2B4   A9 00        4953   	lda  #0
     E2B6   85 12        4954   	sta  tansgn
     E2B8   20 E268      4955   	jsr  sin
     E2BB   A2 4E        4956   	ldx  #<tempf3
     E2BD   A0 00        4957   	ldy  #>tempf3
     E2BF   20 E0F3      4958   	jsr  gmovmf
     E2C2   A9 57        4959   	lda  #<tempf1
     E2C4   A0 00        4960   	ldy  #>tempf1
     E2C6   20 DBA2      4961   	jsr  movfm
     E2C9   A9 00        4962   	lda  #0
     E2CB   85 66        4963   	sta  facsgn
     E2CD   A5 12        4964   	lda  tansgn

VIC20 BASIC  #901486-04 (C)1981 CBM	CR6502/11 version 20.53.12	4-Nov-87  12:9:18	Page 35-1
TRIG   VBASIC.SRC

Error Addr  Code          Seq   Source statement

     E2CF   20 E2D9      4965   	jsr  cosc
     E2D2   A9 4E        4966   	lda  #<tempf3
     E2D4   A0 00        4967   	ldy  #>tempf3
     E2D6   4C DB0F      4968   	jmp  fdiv
                         4969   
     E2D9   48           4970   cosc    pha
     E2DA   4C E29A      4971   	jmp  sin1
                         4972   
     E2DD   81 49 0F     4973   pi2      .byte  @201,@111,@17,@332,@242
     E2E0   DA A2               
     E2E2   83 49 0F     4974   twopi    .byte  @203,@111,@17,@332,@242
     E2E5   DA A2               
     E2E7   7F 00 00     4975   fr4      .byte  @177,0,0,0,0
     E2EA   00 00               
     E2EC   05 84 E6     4976   sincon   .byte  5,@204,@346,@32,@55
     E2EF   1A 2D               
     E2F1   1B 86 28     4977   	.byte   @33,@206,@50,@7,@373
     E2F4   07 FB               
     E2F6   F8 87 99     4978   	.byte   @370,@207,@231,@150,@211
     E2F9   68 89               
     E2FB   01 87 23     4979   	.byte   1,@207,@43,@65,@337,@341
     E2FE   35 DF E1            
     E301   86 A5 5D     4980   	.byte   @206,@245,@135,@347,@50,@203
     E304   E7 28 83            
     E307   49 0F DA     4981   	.byte   @111,@17,@332,@242
     E30A   A2                  
                         4982   
     E30B   A5 66        4983   atn     lda  facsgn
     E30D   48           4984   	pha
     E30E   10 03        4985   	bpl  atn1
     E310   20 DFB4      4986   	jsr  negop
     E313   A5 61        4987   atn1    lda  facexp
     E315   48           4988   	pha
     E316   C9 81        4989   	cmp  #@201
     E318   90 07        4990   	bcc  atn2
     E31A   A9 BC        4991   	lda  #<fone
     E31C   A0 D9        4992   	ldy  #>fone
     E31E   20 DB0F      4993   	jsr  fdiv
     E321   A9 3B        4994   atn2    lda  #<atncon
     E323   A0 E3        4995   	ldy  #>atncon
     E325   20 E040      4996   	jsr  polyx
     E328   68           4997   	pla
     E329   C9 81        4998   	cmp  #@201
     E32B   90 07        4999   	bcc  atn3
     E32D   A9 DD        5000   	lda  #<pi2
     E32F   A0 E2        5001   	ldy  #>pi2
     E331   20 D850      5002   	jsr  fsub
     E334   68           5003   atn3    pla
     E335   10 03        5004   	bpl  atn4
     E337   4C DFB4      5005   	jmp  negop

VIC20 BASIC  #901486-04 (C)1981 CBM	CR6502/11 version 20.53.12	4-Nov-87  12:9:18	Page 35-2
TRIG   VBASIC.SRC

Error Addr  Code          Seq   Source statement

                         5006   
     E33A   60           5007   atn4    rts
                         5008   
     E33B   0B 76 B3     5009   atncon   .byte  @13,@166,@263,@203
     E33E   83                  
     E33F   BD D3 79     5010   	.byte   @275,@323,@171,@36,@364
     E342   1E F4               
     E344   A6 F5 7B     5011   	.byte   @246,@365,@173,@203,@374
     E347   83 FC               
     E349   B0 10        5012   	.byte   @260,@20
     E34B   7C 0C 1F     5013   	.byte   @174,@14,@37,@147,@312
     E34E   67 CA               
     E350   7C DE 53     5014   	.byte   @174,@336,@123,@313,@301
     E353   CB C1               
     E355   7D 14 64     5015   	.byte   @175,@24,@144,@160,@114
     E358   70 4C               
     E35A   7D B7 EA     5016   	.byte   @175,@267,@352,@121,@172
     E35D   51 7A               
     E35F   7D 63 30     5017   	.byte   @175,@143,@60,@210,@176
     E362   88 7E               
     E364   7E 92 44     5018   	.byte   @176,@222,@104,@231,@72
     E367   99 3A               
     E369   7E 4C CC     5019   	.byte   @176,@114,@314,@221,@307
     E36C   91 C7               
     E36E   7F AA AA     5020   	.byte   @177,@252,@252,@252,@23
     E371   AA 13               
     E373   81 00 00     5021   	.byte   @201,0,0,0,0
     E376   00 00               
                         5022   
                         5023   ;.end
                         5024   

VIC20 BASIC  #901486-04 (C)1981 CBM	CR6502/11 version 20.53.12	4-Nov-87  12:9:18	Page 36
INIT   VBASIC.SRC

Error Addr  Code          Seq   Source statement

                         5026   	.subttl INIT
     E378   20 E45B      5027   init    jsr  initv      ; go init vectors
     E37B   20 E3A4      5028   	jsr  initcz     ; go init charget & z-page
     E37E   20 E404      5029   	jsr  initms     ; go print initilization messages
     E381   A2 FB        5030   	ldx  #stkend-256	; set up end of stack
     E383   9A           5031   	txs
     E384   4C C474      5032   	jmp  ready      ; go to ready
                                
                                
                                
                                
                                
                                
     E387   E6 7A        5034   initat  inc  chrget+7
     E389   D0 02        5035   	bne  chdgot
     E38B   E6 7B        5036   	inc  chrget+8
     E38D   AD EA60      5037   chdgot  lda  60000
     E390   C9 3A        5038   	cmp  #':
     E392   B0 0A        5039   	bcs  chdrts
     E394   C9 20        5040   	cmp  #' '
     E396   F0 EF        5041   	beq  initat
     E398   38           5042   	sec
     E399   E9 30        5043   	sbc  #'0
     E39B   38           5044   	sec
     E39C   E9 D0        5045   	sbc  #$d0
     E39E   60           5046   chdrts  rts
                         5047   
     E39F   80 4F C7     5048   	.byte   128,79,199,82,88
     E3A2   52 58               
                                
                                
                                
                                
                                
                                
     E3A4   A9 4C        5050   initcz  lda  #76
     E3A6   85 54        5051   	sta  jmper
     E3A8   85 00        5052   	sta  usrpok
     E3AA   A9 48        5053   	lda  #<fcerr
     E3AC   A0 D2        5054   	ldy  #>fcerr
     E3AE   85 01        5055   	sta  usrpok+1
     E3B0   84 02        5056   	sty  usrpok+2
     E3B2   A9 91        5057   	lda  #<givayf
     E3B4   A0 D3        5058   	ldy  #>givayf
     E3B6   85 05        5059   	sta  adray2
     E3B8   84 06        5060   	sty  adray2+1
     E3BA   A9 AA        5061   	lda  #<flpint
     E3BC   A0 D1        5062   	ldy  #>flpint
     E3BE   85 03        5063   	sta  adray1
     E3C0   84 04        5064   	sty  adray1+1

VIC20 BASIC  #901486-04 (C)1981 CBM	CR6502/11 version 20.53.12	4-Nov-87  12:9:18	Page 36-1
INIT   VBASIC.SRC

Error Addr  Code          Seq   Source statement

     E3C2   A2 1C        5065   	ldx  #initcz-initat-1
     E3C4   BD E387      5066   movchg  lda  initat,x
     E3C7   95 73        5067   	sta  chrget,x
     E3C9   CA           5068   	dex
     E3CA   10 F8        5069   	bpl  movchg
     E3CC   A9 03        5070   	lda  #strsiz
     E3CE   85 53        5071   	sta  four6
     E3D0   A9 00        5072   	lda  #0
     E3D2   85 68        5073   	sta  bits
     E3D4   85 13        5074   	sta  channl
     E3D6   85 18        5075   	sta  lastpt+1
     E3D8   A2 01        5076   	ldx  #1
     E3DA   8E 01FD      5077   	stx  buf-3
     E3DD   8E 01FC      5078   	stx  buf-4
     E3E0   A2 19        5079   	ldx  #tempst
     E3E2   86 16        5080   	stx  temppt
     E3E4   38           5081   	sec     ; read bottom of memory
     E3E5   20 FF9C      5082   	jsr  $ff9c
     E3E8   86 2B        5083   	stx  txttab     ; now txtab has it
     E3EA   84 2C        5084   	sty  txttab+1
     E3EC   38           5085   	sec
     E3ED   20 FF99      5086   	jsr  $ff99      ; read top of memory
     E3F0   86 37        5087   usedef  stx  memsiz
     E3F2   84 38        5088   	sty  memsiz+1
     E3F4   86 33        5089   	stx  fretop
     E3F6   84 34        5090   	sty  fretop+1
     E3F8   A0 00        5091   	ldy  #0
     E3FA   98           5092   	tya
     E3FB   91 2B        5093   	sta  (txttab),y
     E3FD   E6 2B        5094   	inc  txttab
     E3FF   D0 02        5095   	bne  init20
     E401   E6 2C        5096   	inc  txttab+1
     E403   60           5097   init20  rts
                                
                                
                                
                                
                                
                                
     E404   A5 2B        5099   initms  lda  txttab
     E406   A4 2C        5100   	ldy  txttab+1
     E408   20 C408      5101   	jsr  reason
     E40B   A9 36        5102   	lda  #<fremes
     E40D   A0 E4        5103   	ldy  #>fremes
     E40F   20 CB1E      5104   	jsr  strout
     E412   A5 37        5105   	lda  memsiz
     E414   38           5106   	sec
     E415   E5 2B        5107   	sbc  txttab
     E417   AA           5108   	tax
     E418   A5 38        5109   	lda  memsiz+1

VIC20 BASIC  #901486-04 (C)1981 CBM	CR6502/11 version 20.53.12	4-Nov-87  12:9:18	Page 36-2
INIT   VBASIC.SRC

Error Addr  Code          Seq   Source statement

     E41A   E5 2C        5110   	sbc  txttab+1
     E41C   20 DDCD      5111   	jsr  linprt
     E41F   A9 29        5112   	lda  #<words
     E421   A0 E4        5113   	ldy  #>words
     E423   20 CB1E      5114   	jsr  strout
     E426   4C C644      5115   	jmp  scrtch
                                
                                
                                
                                
     E429   20 42 59     5117   words    .byte  ' BYTES FREE',13,0
     E42C   54 45 53            
     E42F   20 46 52            
     E432   45 45 0D            
     E435   00                  
     E436   93 2A 2A     5118   fremes   .byte  147,'**** CBM BASIC V2 ****',13,0
     E439   2A 2A 20            
     E43C   43 42 4D            
     E43F   20 42 41            
     E442   53 49 43            
     E445   20 56 32            
     E448   20 2A 2A            
     E44B   2A 2A 0D            
     E44E   00                  
                                
                                
                                
                                
     E44F   C43A C483    5120   bvtrs    .word  nerror,nmain,ncrnch,nqplop,ngone,neval
     E453   C57C C71A           
     E457   C7E4 CE86           
                         5121   ;
     E45B   A2 0B        5122   initv   ldx  #initv-bvtrs-1     ; init vectors
     E45D   BD E44F      5123   initv1  lda  bvtrs,x
     E460   9D 0300      5124   	sta  ierror,x
     E463   CA           5125   	dex
     E464   10 F7        5126   	bpl  initv1
     E466   60           5127   	rts
                                
                                
                                
                                
     E467   20 FFCC      5129   panic   jsr  clschn     ; warm start basic...
     E46A   A9 00        5130   	lda  #0	 ; clear channels
     E46C   85 13        5131   	sta  channl
     E46E   20 C67A      5132   	jsr  stkini     ; restore stack
     E471   58           5133   	cli     ; enable irq's
     E472   4C C474      5134   	jmp  ready      ; display ready entry
                         5135   
     E475   00           5136   chke0    .byte  $00

VIC20 BASIC  #901486-04 (C)1981 CBM	CR6502/11 version 20.53.12	4-Nov-87  12:9:18	Page 36-3
INIT   VBASIC.SRC

Error Addr  Code          Seq   Source statement

                         5137   ;
                         5138   ; program load patch
                         5139   ;
     E476   20 C533      5140   plink   jsr  lnkprg     ; go link the loaded program
     E479   4C C677      5141   	jmp  fload      ; use normal entry to keep variables
                         5142   
                         5143   ;.end
                         5144   ;rsr 8/10/80 update panic :rem could use in error routine
                         5145   ;rsr 3/06/81 add prog load patch
                         5146   
                         5147   	.end

     No errors detected

VIC20 BASIC  #901486-04 (C)1981 CBM	CR6502/11 version 20.53.12	4-Nov-87  12:9:18	Page X-1
INIT   VBASIC.SRC

                     * * Cross Reference * *

Reference flags  (# = Definition, $ = Write, <BLANK> = Read)

Symbol  Value          References

ABS     DC58           298     4077#   
ADDEND  0028           141#    2768$   2783$   2786$   2803    2806    
ADDFRS  C3B0           562     566#    
ADDIND  D320           2748    2755#   
ADDON   C8FB           1338#   1373    1738    1852    
ADDPR2 =0002           3604#   3605    3605    4313    4336    4338    
ADDPR4 =0004           3605#   3606    3606    
ADDPR8 =0008           3606#   3608    4122    4148    
ADDPRC =0001           98#     627     634     636$    1100    1899    1905    1915    1917    1917    1919    1919    1921    
                       1921    1923    1923    1928    1928    2445    2489    3072    3102    3570    3571    3573    3574    
                       3604    3604    3687    3816    3899    3975    4005    4027    4036    4170    4313    4336    4338    
                       4364    4367    4554    4600    
ADRAY1  0003           113#    5063$   5064$   
ADRAY2  0005           114#    5059$   5060$   
AFFRTS  C637           930     936#    
ANDMSK  0049           162#    3501$   3510    4818    4844$   4850    4879$   4888    4898    
ANDOP   CFE9           330     2291#   
ARGEXP  0069           203#    2066$   2319    2320    3535    3536    3563    3565    3835$   3839    4028    4038$   4479    
                       4555    4558$   
ARGHO   006A           204#    2068$   2317    2318$   3627    3802    3832$   3901    3925$   3939    3941$   
ARGLO   006D           207#    2074$   3618    3793    3818$   3910    3922$   3930    3932$   
ARGMO   006C           206#    2072$   2332    2333    2335$   2336$   2355    3621    3796    3821$   3907    3923$   3933    
                       3935$   
ARGMOH  006B           205#    2070$   3624    3799    3824$   3904    3924$   3936    3938$   
ARGSGN  006E           208#    2076$   2315    3522    3544    3827$   3830    4025    4245    4486    4922    
ARISGN  006F           210#    228     2078$   3523$   3560    3829$   3853    3873$   3885$   4247$   4569$   4927$   
ARYGET  D5AE           3127    3129#   
ARYPNT  0058           178#    2534$   2535$   2683    2685$   2688    2704$   2706$   2709$   2772    2775    3088$   3089$   
                       3092    3093    3110    3111$   3114    3115$   3130    3132    
ARYSTR  D5B0           3130#   3135    
ARYTAB  002F           147#    970$    971$    2431    2433    2480    2481    2498$   2499$   2601    2602    3082    3084    
ARYVA2  D56E           3092#   3117    3119    
ARYVA3  D572           3094#   3133    
ARYVAR  D566           3085    3088#   
ARYVGO  D57D           3095    3100#   
ASC     D78B           314     3408#   
ASPAC   CB0E           1605    1618#   
ATN     E30B           309     4983#   
ATN1    E313           4985    4987#   
ATN2    E321           4990    4994#   
ATN3    E334           4999    5003#   
ATN4    E33A           5004    5007#   
ATNCON  E33B           4994    4995    5009#   
AYINT   D1BF           1445    2127    2293    2301    2542    2552#   
BIGGES  DE32           4318    4332#   

VIC20 BASIC  #901486-04 (C)1981 CBM	CR6502/11 version 20.53.12	4-Nov-87  12:9:18	Page X-2
INIT   VBASIC.SRC

                     * * Cross Reference * *

Reference flags  (# = Definition, $ = Write, <BLANK> = Read)

Symbol  Value          References

BITS    0068           202#    3695    4127$   4134$   4144$   5073$   
BLT1    C3DC           591     594#    
BLTLP   C3E8           600#    603     
BLTU    C3B8           573#    762     2494    
BLTUC   C3BF           576#    3195    
BRKTXT  C381           541#    1235    1236    
BSERR   D245           2626#   2638    2740    
BSERR7  D308           2735    2740#   
BUF    =0200           103#    750     765$    766$    773     818$    877$    878     895$    907$    910     1580$   1581    
                       1691    1693    1696$   1723$   1733    1771$   1772    5077$   5078$   
BUFFUL  CBEA           1726    1729    1733#   
BUFLEN =0059           101#    820     
BUFOFS =0200           831#    838     867     890     905     
BUFPAG =0002           102#    1151    2992    4779    4797    
BUFPTR  0071           212#    859$    874     
BVTRS   E44F           5120#   5122    5123    
CAT     D63D           1990    3207#   
CCALL  =FFE7           963     4690#   
CCLOS   E1C4           293     4817#   
CGETL   E121           1770    4705#   
CHANNL  0013           130#    664$    1553$   1584    1588    1646    1668    1689$   1699    1706$   1709    1712$   1725    
                       1735    1740    1777    1868    5074$   5131$   
CHARAC  0007           116#    1349$   1353    1354$   1403$   1421    1795$   1797$   1801$   2965$   2975    
CHDGOT  E38D           5035    5037#   
CHDRTS  E39E           5039    5046#   
CHEAD   C53C           786#    805     
CHKCLS  CEF7           2145#   2594    2849    3378    
CHKCOM  CEFD           1834    2149#   2262    2373    3362    3465    4867    
CHKE0   E475           5136#   
CHKERR  CD99           1946    1950#   
CHKNUM  CD8D           1116    1937#   2000    2060    2287    2549    2848    2875    2883    2946    
CHKOK   CD96           1947#   1949    
CHKOPN  CEFA           2143    2147#   2260    2844    
CHKSTR  CD8F           1939#   2263    3212    3269    
CHKVAL  CD90           1440    1940#   2313    
CHRD    D6EC           315     3313#   
CHRGET  0073           217#    695     1014    1134    1178    1193    1203    1391    1425    1622    1685    1787    1934    
                       1980    2086    2099    2153    2257    2392    2397    2417    2547    3417    4181    4187    4199    
                       5034$   5036$   5067$   
CHRGOT  0079           218#    1010    1131    1279    1365    1374    1559    1766    1818    1832    1853    1931    1967    
                       2376    2381    2384    2590    2921    3359    3427    3452    3503    4859    4868    
CHRRTS  008A           221#    
CKSMC0  DF52           4471#   
CLD10   E16C           4754#   
CLD20   E194           4780    4785#   4820    

VIC20 BASIC  #901486-04 (C)1981 CBM	CR6502/11 version 20.53.12	4-Nov-87  12:9:18	Page X-3
INIT   VBASIC.SRC

                     * * Cross Reference * *

Reference flags  (# = Definition, $ = Write, <BLANK> = Read)

Symbol  Value          References

CLD50   E195           4766    4790#   
CLD60   E1A1           4792    4796#   
CLD70   E1B5           4798    4809#   
CLEAR   C65E           289     962#    
CLEARC  C660           963#    1264    
CLEART  C663           964#    4673    
CLMWID =000B           105#    1601    
CLOAD   E165           280     4750#   
CLRFAC  DCE9           4120    4162#   
CLSCHN =FFCC           662     1710    4680#   5129    
CMD     CA86           290     1545    1548#   
CMPFOR  C3A4           556     561#    
CMPSPC  C58E           839     844#    
COIN    E11B           1690    1707    4699#   
COLIS   C5DC           882     885#    
COMBYT  D7F1           3465#   3505    
COMPRT  CAE8           1568    1596#   
CONINT  D7A1           3313    3423#   
CONT    C857           287     1242#   
CONTRT  C870           1221    1242    1255#   
CONUPK  DA8C           3518    3529    3762    3814#   3889    
COOUT   E115           1554    4695#   
COPEN   E1BB           292     4812#   
COPFLT  C9D6           1443    1454#   
COPSTR  C9D9           1441    1456#   
COPY    CA52           1513    1516    1521#   
COPYC   CA68           1519    1531#   
COS     E261           306     4916#   
COSC    E2D9           4965    4970#   
COUNT   000B           120#    706$    755     771     861$    873     899$    2292$   2295    2298    2303    2305    2308    
                       2310    2527    2593$   2635    2657    2681$   2723$   2757$   
CRDO    CAD7           665     1030    1560    1586#   
CRDONE  C609           879     907#    
CRFIN   CAE5           1589    1593#   1642    
CRTSKP  CB42           1647    1650#   
CRUNCH  C579           701     705     833#    
CSAVE   E153           281     4739#   
CSYS    E127           291     4715#   
CSYSRZ =E143           4717    4719    4729#   
CURLIN  0039           152#    679     699$    1110    1112    1167$   1170$   1224    1229    1230    1253$   1254$   1273    
                       1275    1286    1288    1330$   1332$   1664$   1665$   1918$   1920$   2834    4282    4283    
CURTOL  0071           215#    2644$   2656$   2678$   2679$   2696$   2701    2707$   2725$   2726$   2745    2746    2756$   
                       2759$   2798$   2799$   
CVERF   E162           282     4747#   
CZLOOP  C544           790#    792     

VIC20 BASIC  #901486-04 (C)1981 CBM	CR6502/11 version 20.53.12	4-Nov-87  12:9:18	Page X-4
INIT   VBASIC.SRC

                     * * Cross Reference * *

Reference flags  (# = Definition, $ = Write, <BLANK> = Read)

Symbol  Value          References

DATA    C8F8           264     1337#   1731    2865    
DATAN   C906           1102    1337    1346#   1737    1837    
DATATK =0083           347#    883     1855    
DATBK   CC4D           1775    1781#   
DATBK1  CC51           1767    1787#   1857    
DATLIN  003F           155#    1662    1663    1847$   1851$   
DATLOP  CCB8           1776    1837#   1856    
DATPTR  0041           156#    1214$   1215$   1746    1747    
DECBLT  C3F3           586     606#    
DECCNT  005D           183#    2206$   2788$   2809$   4171$   4213    4233$   4314$   4326$   4329$   4334    4346$   4395$   
DECCUR  D2CD           2702    2706#   
DEF     D3B3           283     2842#   
DEFFIN  D44F           2866    2929#   
DEFPNT  004E           170#    2873$   2874$   2878    2880    2885$   2887$   2889    2893    2907    2910    2918$   2920$   
                       2931$   2934$   2937$   2940$   2943$   
DEFSTF  D418           2897#   2900    
DEGREE  0067           200#    4588$   4608$   
DIM     D081           267     2374#   
DIM3    D07E           2373#   2377    
DIMFLG  000C           121#    2382$   2561    2600$   2632    2664    2719    
DIMRTS  D34B           2720    2779#   2836    
DIRCN1  C7CE           1162    1165#   
DIRCON  C7BE           1153    1156#   
DIRIS   C849           1226    1233#   
DIV10   DAFE           3881#   4217    4328    
DIVIDE  DB29           3901#   3927    
DIVNRM  DB7E           3918    3947#   
DIVSUB  DB5D           3921    3929#   
DNTCPY  CA4B           1504    1509    1512    1517#   
DOAGIN  CB6B           1669    1673#   
DOCMP   D072           2352    2354    2363    2365#   
DOCO    C948           1375    1378#   
DOCOND  C940           1371    1374#   
DOCSTR  CD97           1945    1949#   
DOMASK  0012           128#    2064$   2368    
DOMIN   CF0D           2110    2158#   
DOPRE1  CE20           2002    2022#   
DOPREC  CDF9           2001#   2021    
DOREL   D016           338     2313#   
DORES   000F           125#    837$    849     885$    1026$   1049    1051$   1071    
DOSGFL  D81B           3488#   
DPTFLG  005F           186#    4208$   4209    4231    
DSCPNT  0050           171#    1524    1525    1531$   1532$   1535    1538    1541    2956$   2957$   3227    3228    3326    
                       3329    3336    3337    3353    3371    3388$   3390$   
DSCTMP  0061           191#    1529    1530    2329$   2330$   2331$   2339    2343    2360    2959$   2960$   2961$   2969$   

VIC20 BASIC  #901486-04 (C)1981 CBM	CR6502/11 version 20.53.12	4-Nov-87  12:9:18	Page X-5
INIT   VBASIC.SRC

                     * * Cross Reference * *

Reference flags  (# = Definition, $ = Write, <BLANK> = Read)

Symbol  Value          References

                       2970$   2982$   3005    3007    3009    3320$   
DV0ERR  DB8A           3890    3957#   
DVAR    D5C7           3070    3134    3142#   
DVAR2   D5DC           3150    3154#   
DVAR3   D5E6           3156    3159#   
DVARS   D5BD           3086    3136#   
DVARTS  D5F6           3137    3140    3143    3151    3153    3155    3158    3167#   
EATEM   D0B0           2397#   2398    2400    
END     C831           261     1220#   
ENDCHR  0008           117#    846$    889$    892     1351$   1352    1355$   1358    1804$   2966$   2977    
ENDCON  C84B           1163    1235#   
ENDREL  CDD7           1970    1972    1983#   
ENDTK  =0080           342#    1183    1185    1201    
EORMSK =004A           164#    3506$   3509    4886$   4897    
EPSGN  =0060           190#    
EQULTK =00B2           415#    
ERBRK  =001E           540#    4677    
EREXIT  E0F6           4669#   4683    4687    4696    4700    4706    4744    4822    
EREXIX  E101           4670    4675#   
EREXIY  E106           4676    4678#   
ERLOAD =001D           497#    4793    
ERR     C369           537#    676     677     
ERR01   C19E           449#    504     
ERR02   C1AC           450#    505     
ERR03   C1B5           451#    506     
ERR04   C1C2           452#    507     
ERR05   C1D0           453#    508     
ERR06   C1E2           454#    509     
ERR07   C1F0           455#    510     
ERR08   C1FF           456#    511     
ERR09   C210           457#    512     
ERR10   C225           458#    513     
ERR11   C235           460#    514     
ERR12   C23B           462#    515     
ERR13   C24F           464#    516     
ERR14   C25A           466#    517     
ERR15   C26A           468#    518     
ERR16   C272           470#    519     
ERR17   C27F           472#    520     
ERR18   C290           474#    521     
ERR19   C29D           476#    522     
ERR20   C2AA           478#    523     
ERR21   C2BA           480#    524     
ERR22   C2C8           482#    525     
ERR23   C2D5           484#    526     

VIC20 BASIC  #901486-04 (C)1981 CBM	CR6502/11 version 20.53.12	4-Nov-87  12:9:18	Page X-6
INIT   VBASIC.SRC

                     * * Cross Reference * *

Reference flags  (# = Definition, $ = Write, <BLANK> = Read)

Symbol  Value          References

ERR24   C2E4           486#    527     
ERR25   C2ED           488#    528     
ERR26   C300           490#    529     
ERR27   C30E           492#    530     
ERR28   C31E           494#    531     
ERR29   C324           496#    532     
ERR30   C383           533     542#    
ERRBD  =0018           487#    1670    
ERRBS  =0012           475#    2626    
ERRCN  =001A           491#    1243    
ERRCRD  C44E           665#    
ERRDD  =0013           477#    2631    
ERRDIR  D3A6           1682    1721    2834#   2843    
ERRDVO =0014           479#    3957    
ERRFC  =000E           467#    2628    
ERRFIN  C469           678#    1238    
ERRGO2  D4D2           3003#   3047    
ERRGO3  D24A           2629#   2633    
ERRGO4  CD9B           1951#   
ERRGO5  CD32           1844    1892#   
ERRGUF  D3AE           2839#   2894    
ERRID  =0015           481#    2837    
ERRLS  =0017           485#    823     3222    
ERRNF  =000A           459#    1891    
ERROD  =000D           465#    1841    
ERROM  =0010           471#    652     3045    
ERROR   C437           653#    824     1246    1324    1671    1892    1951    2156    2629    2840    3003    3223    3684    
                       3958    4678    4774    4794    
ERROV  =000F           469#    3683    
ERRRG  =000C           463#    1321    
ERRSN  =000B           461#    2155    
ERRST  =0019           489#    3002    
ERRTAB  C328           504#    658     660     
ERRTM  =0016           483#    1950    
ERRUF  =001B           493#    2839    
ERRUS  =0011           473#    1323    
ERVFY  =001C           495#    4770    
EVAL    CE83           1964    2082#   3211    
EVAL0   CE8A           2086#   2112    
EVAL1   CE8F           2088#   2108    
EVAL2   CE92           2087    2090#   
EVAL3   CECC           2114    2123#   
EVAL4   CEE3           2124    2135#   
EXCHQT  C911           1352#   1363    
EXIGNT  CCFC           1870    1871    1876#   

VIC20 BASIC  #901486-04 (C)1981 CBM	CR6502/11 version 20.53.12	4-Nov-87  12:9:18	Page X-7
INIT   VBASIC.SRC

                     * * Cross Reference * *

Reference flags  (# = Definition, $ = Write, <BLANK> = Read)

Symbol  Value          References

EXP     DFED           305     4478    4502    4529#   
EXP1    E00B           4544    4546#   
EXPCON  DFC4           4518#   4565    4566    
EXPSGN  0060           188#    4198$   4201    4255    
FAC     0061           192#    3550    4130    
FACEXP  0061           193#    1370    1464$   2051    2079    2552    3470    3524    3540    3543$   3562    3611$   3639    
                       3643$   3645$   3738    3742$   3836    3842    3849$   3875$   3894    3895$   3897$   3991$   4020    
                       4029$   4037    4044    4052    4072$   4090    4119    4147    4157$   4248    4302    4506    4542    
                       4556    4557$   4654    4657$   4987    
FACHO   0062           194#    1120    1121$   2049    2240$   2825$   2826$   3581$   3587    3589    3590$   3626    3628$   
                       3636$   3647$   3657    3659$   3680$   3780    3902    3940    3964$   3988$   4017    4062$   4064$   
                       4066    4094    4140$   4141    4142$   4162$   4284$   4285$   4372    4374$   4623$   4645    4647$   
FACLO   0065           198#    1386$   1450    1490    1510    2043    2128    2175    2182    2238$   2297    2302    2544    
                       3207    3358$   3374    3376    3426    3572$   3600$   3617    3619$   3633$   3650$   3666    3668$   
                       3674$   3774    3911    3931    3970$   3977$   4006    4070$   4108    4158    4165$   4362    4365$   
                       4632$   4644    4646$   
FACMO   0064           197#    1447    1488    1502    1507    1514    1517    1518    1522    2045    2131    2173    2180    
                       2187$   2188$   2216    2219    2236$   2250    2251    2266    2268    2294    2307    2543    2954    
                       2955    3012$   3013$   3209    3220    3270    3271    3424    3474    3475    3575$   3597    3598$   
                       3620    3622$   3634$   3649$   3663    3665$   3676$   3776    3908    3934    3968$   3980$   4009    
                       4071$   4102    4164$   4366    4368$   4626$   4649    4651$   
FACMOH  0063           195#    1489    2047    2237$   3578$   3591    3596$   3623    3625$   3635$   3648$   3660    3662$   
                       3678$   3778    3905    3937    3966$   3983$   4012    4098    4163$   4369    4371$   4629$   4648    
                       4650$   
FACOV   0070           211#    2194$   3014$   3533    3553$   3557    3569$   3599    3601$   3616$   3632$   3651$   3669    
                       3671$   3672$   3688$   3702    3772    3808$   3953$   3992$   4022$   4032$   4041$   4046$   4073$   
                       4106    4151$   4532    4562$   4655$   
FACSGN  0066           199#    1118    1465$   1906$   2032    2077    2345$   2351    2550    3468    3519    3521$   3545$   
                       3612$   3654    3656$   3828    3854$   3857    3986$   4015    4026$   4054    4074$   4077$   4088    
                       4110    4123    4138    4152    4153$   4246    4294    4298$   4508    4510$   4653$   4932    4936    
                       4963$   4983    
FADD    D867           1909    3516    3529#   3745    3757    4605    4643    4918    4944    
FADD1   D897           3551    3554#   
FADD2   D8FE           3561    3615#   
FADD4   D8A3           3528    3541    3560#   
FADD5   D862           3527#   3555    
FADDA   D893           3542    3552#   
FADDC   D877           3537#   3874    
FADDH   D849           3514#   4331    4935    
FADDT   D86A           320     3525    3530#   4249    
FADFLT  D8D2           3582#   4075    4160    
FBUFFR  0100           227#    4297$   4353$   4358$   4394$   4399$   4411    4431$   4433$   4441$   4443$   4445$   4447$   
                       4449$   4450    4451    
FBUFPT  0071           216#    1470$   1473$   1474    1482    2204$   4299$   4350    4359$   4390    4400$   4410    
FCERR   D248           1496    2558    2628#   3415    3736    5053    5054    

VIC20 BASIC  #901486-04 (C)1981 CBM	CR6502/11 version 20.53.12	4-Nov-87  12:9:18	Page X-8
INIT   VBASIC.SRC

                     * * Cross Reference * *

Reference flags  (# = Definition, $ = Write, <BLANK> = Read)

Symbol  Value          References

FCERR2  CA24           1462    1496#   
FCOMP   DC5B           2321    2557    4080#   4317    4322    4491    
FCOMPC  DC92           4091    4095    4099    4103    4110#   
FCOMPD  DC98           4111    4113#   
FCOMPN  DC5D           1912    4081#   
FCOMPS  DC31           4055#   4113    
FCSIGN  DC2F           4054#   4089    
FDCEND  DF3A           2207    4406    4464#   
FDECPT  0047           159#    4389$   4401    
FDIV    DB0F           3748    3889#   4968    4993    
FDIVF   DB07           3885#   4923    
FDIVT   DB12           326     3887    3890#   
FFLOOP  C38F           552#    570     
FFRTS   C3B7           554     565     571#    
FHALF   DF11           3514    3515    4454#   4475    4476    
FIN     DCF3           1815    2088    3453    4169#   
FIN1    DD0F           4180    4183#   
FINC    DD0A           4178    4181#   4210    4239    
FINDG1  DD71           4232    4234#   
FINDGQ  DD0D           4174    4182#   
FINDIG  DD6A           4182    4230#   
FINDIV  DD52           4217#   4219    
FINDP   DD41           4184    4208#   
FINE    DD47           4186    4202    4211#   
FINE1   DD49           4206    4212#   
FINEC   DD30           4194    4196    4199#   4270    
FINEC1  DD2E           4190    4192    4198#   
FINEC2  DD35           4197    4201#   
FINEDG  DD91           4200    4251#   
FINGO   CFD6           2277    2282#   
FINI    C52A           777#    4805    
FININ1  C576           816     826#    
FININL  CACA           826     1579#   
FINLOG  DD7E           1499    3759    4238    4241#   
FINML6  DAED           1481    3872#   
FINMUL  DD5B           4216    4221#   4223    
FINNOW  D18F           2521    2523#   
FINPTR  D185           2441    2517#   
FINQNG  DD62           4215    4220    4224#   
FINRE2  CE11           2013    2015#   
FINREL  CE07           1984    2009#   
FINZLP  DCF7           4171#   4173    
FLINRT  C640           922     942#    
FLNRTS  C641           927     934     935     943#    945     1013    1016    
FLOAD   C677           975#    5141    

VIC20 BASIC  #901486-04 (C)1981 CBM	CR6502/11 version 20.53.12	4-Nov-87  12:9:18	Page X-9
INIT   VBASIC.SRC

                     * * Cross Reference * *

Reference flags  (# = Definition, $ = Write, <BLANK> = Read)

Symbol  Value          References

FLOAT   DC3C           2248    2371    4062#   4244    
FLOATB  DC4F           2233    4072#   
FLOATC  DC49           4069#   4288    
FLOATS  DC44           2828    4066#   
FLPINT  D1AA           2542#   5061    5062    
FMAPTR  D194           2527#   2634    2641    
FMULT   DA28           3762#   4312    4501    4531    4578    4582    4596    4640    
FMULTT  DA2B           324     3763#   
FNDFOR  C38A           547#    1092    1317    1889    
FNDLIN  C613           707     916#    1009    
FNDLNC  C617           918#    941     1300    
FNDLO1  C62E           928     931#    
FNDOER  D3F4           2137    2877#   
FNDVAR  D52A           3055#   3205    
FNEDG1  DD33           4188    4200#   
FNTK   =00A5           394#    2135    2868    
FNWAIT  D82D           279     3500#   
FONE    D9BC           1128    1129    3718#   3749    3750    4991    4992    
FOR     C742           262     1089#   
FORPNT  0049           163#    164     555     558$    560$    563     1138    1140    1316$   1429$   1430$   1448$   1451$   
                       1457    1536$   1539$   1542$   1756$   1757$   1887$   1888$   1907    1908    4000    4001    
FORPSH  CE43           1126    2042#   
FORSIZ =0012           545#    568     1095    
FORTK  =0081           344#    553     1142    
FOULDY  DEC4           4407    4410#   
FOUR6   0053           173#    3073$   3091$   3165    3167    5071$   
FOUT    DDDD           1574    4292#   
FOUT1   DDE7           4295    4297#   
FOUT11  DEC6           4411#   4414    
FOUT12  DED3           4416    4418#   
FOUT14  DEE3           4421    4431#   
FOUT15  DEEF           4437#   4439    
FOUT16  DE64           4355    4359#   
FOUT17  DF07           4420    4448#   
FOUT19  DF04           4304    4447#   
FOUT2   DE6A           4362#   4377    4379    4409    
FOUT20  DF0C           4446    4450#   
FOUT3   DE16           4320#   4327    
FOUT37  DE00           4308    4310#   
FOUT38  DE21           4323    4325#   
FOUT39  DE53           4348    4350#   
FOUT4   DE0B           4315#   4330    
FOUT40  DE90           4378    4380#   
FOUT41  DE8E           4376    4379#   
FOUT5   DE2F           4324    4331#   

VIC20 BASIC  #901486-04 (C)1981 CBM	CR6502/11 version 20.53.12	4-Nov-87  12:9:18	Page X-10
INIT   VBASIC.SRC

                     * * Cross Reference * *

Reference flags  (# = Definition, $ = Write, <BLANK> = Read)

Symbol  Value          References

FOUT6   DE48           4339    4344#   
FOUT7   DE09           4309    4314#   
FOUT8   DE66           4349    4360#   
FOUT9   DE28           4319    4328#   
FOUTBL  DF16           2207    4364    4367    4370    4373    4406    4408    4456#   
FOUTC   DDDF           2948    4289    4293#   
FOUTIM  DE68           2208    4361#   
FOUTPI  DE47           4337    4343#   
FOUTYP  DE97           4381    4384#   
FPWR1   DF9E           4487    4492    4495#   
FPWRT   DF7B           328     4478#   
FPWRT1  DF84           4480    4483#   
FR4     E2E7           4929    4930    4942    4943    4975#   
FRE     D37D           300     2813#   
FREFAC  D6A6           1460    1631    2328    2815    3270#   
FREMES  E436           5102    5103    5118#   
FREPLA  D6D5           3296    3298#   
FRERTS  D6EB           3304    3306    3311#   
FRESPC  0035           150#    3039$   3040$   3258$   3263    3264$   3266$   
FRESTR  D6A3           3269#   3402    4903    
FRETMP  D6AA           2334    3229    3233    3272#   3338    
FRETMS  D6DB           1533    3274    3303#   
FRETOP  0033           149#    621     624     642     645     966$    967$    1503    1508    2818    2821    3028    3029    
                       3037$   3038$   3055$   3056$   3149    3152    3191    3192    3288    3290    3294    3295$   3297$   
                       5089$   5090$   
FRETRT  D6D6           3287    3289    3291    3299#   
FRMEV1  CDA4           1954    1956#   
FRMEVL  CD9E           1364    1437    1571    1936    1953#   2144    2261    2548    4902    
FRMNUM  CD8A           1117    1135    1936#   2916    3422    3463    4715    
FSUB    D850           3518#   3751    4931    5002    
FSUBT   D853           322     3519#   4563    4928    
FUNDSP  C052           296#    2282    2284    
GARBA2  D526           633     2816    3048    3053#   
GARBAG  D516           3033    3036    3045#   
GARBFL  000F           124#    3024$   3046    3050$   
GET     CB7B           294     1682#   
GETADR  D7F7           3464    3468#   3484    4716    
GETAGN  CBD6           1724#   1736    
GETBPT  C5C7           874#    906     
GETBYT  D79E           1380    1548    1686    1703    2272    3363    3422#   3466    4855    4878    
GETCMP  D066           2350    2355#   
GETCON  D818           3486#   
GETDEF  D2EA           2639    2722#   
GETDTL  CB57           1659    1662#   
GETERR  C456           668#    674     

VIC20 BASIC  #901486-04 (C)1981 CBM	CR6502/11 version 20.53.12	4-Nov-87  12:9:18	Page X-11
INIT   VBASIC.SRC

                     * * Cross Reference * *

Reference flags  (# = Definition, $ = Write, <BLANK> = Read)

Symbol  Value          References

GETFNM  D3E1           2842    2868#   2877    
GETFOR  CD24           1883    1886#   1935    
GETNTH  CC4A           1778    1780#   
GETNUM  D7EB           3463#   3494    3500    
GETSPA  D4F4           2958    3024#   
GETSPT  CA2C           1459    1501#   
GETSTK  C3FB           612#    1101    1268    1963    
GETTIM  CF84           2201    2230    2235#   
GETTTY  CB92           1684    1692#   
GINLIN  CC03           1741    1744#   
GIVAYF  D391           2133    2222    2311    2823#   2833    5057    5058    
GLET    C804           1184    1195#   
GMOVMF  E0F3           4661#   4958    
GOBADV  D138           2473#   2479    
GOFLOT  D07B           2369    2371#   
GOFUC   D798           3365    3409    3415#   3425    3469    3472    
GOGO    D5B8           3131    3134#   
GOLST   C6A4           1004    1005    1008#   
GOMLDV  E008           4545#   4550    
GOMOVF  CFA0           2225    2229    2244    2246    2250#   
GONE    C7E1           702     1174    1176#   1198    
GONE2   C7EF           1183#   1389    
GONE3   C7ED           1179    1182#   1378    
GONPRC  CF0F           2126    2159#   
GOOO    CF5D           2192    2213#   
GOOOOO  CF6E           2214    2224#   
GOOVER  DADF           3844    3859    3864#   3871    3876    3898    
GORDY   C854           1237    1240#   
GORTS   C8D1           1312#   1314    
GOSUB   C883           274     1267#   
GOSUTK =008D           359#    1277    1319    1382    
GOTARY  D24D           2616    2631#   
GOTK   =00CB           444#    1201    
GOTNUM  CA27           1495    1498#   
GOTO    C8A0           270     1206    1280    1283#   1376    
GOTOTK =0089           354#    1366    1384    
GRBPAS  D606           3098    3177#   
GRBPNT  004E           168#    3058$   3059$   3163$   3164$   3177    3178    3185    3199$   3204$   
GRBRTS  D601           3171    3173#   3179    
GRBTOP  005F           185#    3062$   3063$   3154    3157    3159$   3160$   
GREASE  D2B9           2689    2692#   
GREATK =00B1           413#    1969    1971    1986    
GRODY   C714           1028    1040    1053    1064#   
GTBYTC  D79B           1610    3417#   
HAVFOR  CD35           1890    1894#   

VIC20 BASIC  #901486-04 (C)1981 CBM	CR6502/11 version 20.53.12	4-Nov-87  12:9:18	Page X-12
INIT   VBASIC.SRC

                     * * Cross Reference * *

Reference flags  (# = Definition, $ = Write, <BLANK> = Read)

Symbol  Value          References

HIGHDS  0058           179#    594     596$    598$    601$    605$    607$    630     636$    756$    761$    2492$   2493$   
                       2495    2496    3193$   3194$   3198    3201$   3202    
HIGHTR  005A           180#    577     581     587     590$    592$    600     604     606$    754$    758$    2486$   2487$   
                       3187$   3190$   
ICRNCH  0304           235#    833     
IERROR  0300           233#    653     5124$   
IEVAL   030A           238#    2082    
IF      C928           272     1364#   
IGONE   0308           237#    1176    
IMAIN   0302           234#    690     
INCFAC  D96F           3674#   4048    
INCFRT  D97D           3673    3675    3677    3679    3681#   
INCHR   E10F           814     4686#   
INCRND  DC23           4048#   4535    
INDEX   0022           136#    579$    589     595     615$    617     783$    784$    787     791     795     798$    799     
                       802$    803$    804$    1405$   1410$   1412$   1415    1493    1637    2680    2781$   3251$   3252$   
                       3257    3272$   3273$   3277    3280    3283    3299$   3300$   3343    3344$   3346$   3820    4007$   
                       4010$   4013$   4018$   4021$   
INDEX1  0022           137#    659$    661$    668     711$    713$    736     738$    740     744$    1124$   1125$   1993$   
                       1995    2036$   2037$   2039$   2053    2754    3066$   3067$   3080$   3081$   3100$   3101$   3103    
                       3106    3109    3113    3121    3125    3126$   3128$   3129    3136    3139    3142    3145    3148    
                       3161    3162    3169    3170$   3172$   3173    3411    3437    3440    3442    3814$   3815$   3817    
                       3823    3826    3834    3973$   3974$   3976    3979    3982    3985    3990    4003$   4004$   4619$   
                       4620$   4622    4625    4628    4631    4904    4905    
INDEX2  0024           138#    715$    722$    734$    741$    745$    1900$   3441$   3446$   3448    3451$   3456$   4080$   
                       4081$   4083    4087    4092    4097    4101    4107    
INDICE  0064           196#    2585    2587    2730$   2732$   2751    2755    
INDLOP  D1DB           2567#   2592    
INIT    E378           256     5027#   
INIT20  E403           5095    5097#   
INITAT  E387           2179    2181    5034#   5041    5065    5066    
INITCZ  E3A4           5028    5050#   5065    
INITMS  E404           5029    5099#   
INITV   E45B           5027    5122#   5122    
INITV1  E45D           5123#   5126    
INLIN   C560           692     812#    1744    
INLINC  C562           814#    821     
INLOOP  CC15           1755#   1835    
INLPN1  D30F           2739    2745#   
INLPN2  D30E           2734    2744#   
INLPNM  D2F2           2726#   2758    
INPCO1  CC0F           1698    1752#   
INPCOM  C9DA           1457#   1812    
INPCON  CC0D           1734    1751#   
INPFLG  0011           127#    1657    1752$   1768    1790    1861    

VIC20 BASIC  #901486-04 (C)1981 CBM	CR6502/11 version 20.53.12	4-Nov-87  12:9:18	Page X-13
INIT   VBASIC.SRC

                     * * Cross Reference * *

Reference flags  (# = Definition, $ = Write, <BLANK> = Read)

Symbol  Value          References

INPPTR  0043           157#    1753$   1754$   1762    1763    1826$   1827$   1859    1860    1866    
INPRT   DDC2           682     4279#   
INPRTS  CCFB           1867    1869    1874#   
INPUT   CBBF           266     1715#   
INPUTN  CBA5           265     1703#   
INT     DCCC           297     4147#   4488    4546    4925    
INTEGR  0007           115#    2296$   2299$   2304    2309    4159$   4494    4547    
INTERR  D09C           2387#   2409    
INTFLG  000E           123#    1433    1816    2213    2391$   2411$   2562    2598$   
INTIDX  D1B2           2547#   2573    
INTRTS  DCF2           4149    4167#   
INTXT   C371           538#    4279    4280    
IODONE  CBB5           1546    1709#   1730    
IORELE  CBB7           1700    1710#   
IQPLOP  0306           236#    1066    
ISARY   D1D1           2423    2561#   
ISCNTC  C82C           1029    1148    1218#   
ISCRTS  C82B           1182    1216#   
ISFUN   CFA7           2141    2254#   
ISLETC  D113           2090    2385    2394    2399    2449#   
ISLRTS  D11C           2450    2454#   
ISSEC   D0AF           2393    2396#   
ISVAR   CF28           2092    2186#   
ISVRET  CF2B           2187#   2458    
JERXIT  E1CE           4763    4814    4822#   
JMPER   0054           174#    2283$   2285$   2286    3382$   3391    5051$   
JSRGM   D1A0           2532    2534#   
KLOOP   C582           838#    843     888     
KLOOP1  C5A4           852     855#    
LASNUM =00C7           439#    2258    2258    
LASTPT  0017           134#    3017$   3303    3305    3309$   5075$   
LD100   DB7A           3917    3945#   
LDFONE  C78B           1122    1123    1128#   
LDZR    D123           2461#   2470    
LEFTD   D700           316     3325#   
LEN     D77C           311     3399#   
LEN1    D782           3399    3402#   3408    3429    
LESSTK =00B3           417#    1971    
LET     C9A5           269     1091    1195    1428#   
LINGET  C96B           704     1008    1015    1283    1392    1398#   
LINLEN =0016           100#    
LINNUM  0014           132#    763     764     925     931     1019    1020    1023$   1024$   1036    1038    1287    1289    
                       1399$   1400$   1404    1408    1413    1414$   1416    1417$   1418$   1419$   1420    1422$   1424$   
                       4727    
LINPRT  DDCD           1042    4284#   5111    

VIC20 BASIC  #901486-04 (C)1981 CBM	CR6502/11 version 20.53.12	4-Nov-87  12:9:18	Page X-14
INIT   VBASIC.SRC

                     * * Cross Reference * *

Reference flags  (# = Definition, $ = Write, <BLANK> = Read)

Symbol  Value          References

LIST    C69C           288     1004#   
LIST4   C6C9           1021    1025#   1063    
LNKPRG  C533           749     778     781#    5140    
LNKRTS  C55F           788     806#    
LOFBUF  00FF           226#    2951    2952    
LOG     D9EA           304     3733#   4498    
LOG1    D9F4           3735    3738#   
LOG2    D9E5           3727#   3760    3761    
LOGCN2  D9C1           3719#   3752    3753    
LOGEB2  DFBF           4516#   4529    4530    
LOGERR  D9F1           3734    3736#   
LOOPDN  CD78           1916    1927#   
LOPFDA  D21C           2603#   2625    
LOPFDV  D228           2606    2609#   
LOPFN   D0FB           2432    2435#   
LOPFND  D0F1           2430#   2446    
LOPPTA  D286           2662#   2682    
LOPREL  CDBB           1968#   1981    
LOWDS   005D           184#    189     
LOWTR   005F           187#    190     578     582     710     714     716     718     726     729     774$    919$    920$    
                       921     926     933     937     940     1027    1032    1035    1054    1057    1060    1061$   1062$   
                       1302    1309    2429$   2430$   2436    2440    2444    2482$   2483$   2502$   2505$   2508$   2510$   
                       2512$   2514$   2516$   2517    2520    2530    2531    2603$   2604$   2610    2615    2618    2620    
                       2623    2624    2637    2647$   2652$   2661$   2673$   2676$   2712    2714$   2717    2718$   2722    
                       2733    2738    2782    2785    3186    3188    
LPOPER  CDA9           1959#   2028    
LSTEND  C6BB           1011    1017#   
LSTPNT  0049           161#    1041$   1044    1076$   
LUK4IT  C8BC           1290    1298#   
LUKALL  C8C0           1295    1297    1300#   
MAIN    C480           690#    697     751     779     
MAIN1   C49C           700     704#    
MEMSIZ  0037           151#    964     965     3053    3054    4671$   4672$   5087$   5088$   5105    5109    
MID2    D748           3361    3364#   
MIDD    D737           318     3357#   
MINUTK =00AB           406#    1006    1012    2109    4189    
MLDEXP  DAB9           3840#   4571    
MLDVEX  DAD4           3857#   4545    
MLEX10  DDA0           4253    4259#   
MLEXMI  DDAE           4256    4269#   
MLOOP   C4DF           737     740#    743     747     
MLTPL1  DA5E           3781    3787#   
MLTPL2  DA61           3789#   3811    
MLTPL3  DA7D           3790    3804#   
MLTPLY  DA59           3773    3775    3777    3779    3784#   

VIC20 BASIC  #901486-04 (C)1981 CBM	CR6502/11 version 20.53.12	4-Nov-87  12:9:18	Page X-15
INIT   VBASIC.SRC

                     * * Cross Reference * *

Reference flags  (# = Definition, $ = Write, <BLANK> = Read)

Symbol  Value          References

MORCO1  CAEE           1601#   1602    
MOREN1  C3EC           597     599     602#    609     
MORLIN  C971           1401#   1426    
MORSTS  C807           1158    1197#   
MOV1F   DBCA           3997#   4576    4952    
MOV2F   DBC7           3995#   4586    
MOVAF   DC0C           1476    3866    3881    4035#   4242    4474    4919    4924    
MOVAFL  DC11           4037#   4040    
MOVCHG  E3C4           5066#   5069    
MOVDO   D68C           3230    3253#   3348    
MOVEF   DC0F           4036#   4541    
MOVFA   DBFC           2300    3531    4025#   
MOVFA1  DBFE           4026#   4495    
MOVFAL  DC02           4028#   4031    
MOVFM   DBA2           1130    1903    2098    2252    3886    3973#   4477    4637    4961    
MOVFR   DB8F           3782    3955    3963#   
MOVINS  D67A           1528    3226    3237#   
MOVLP   D690           3256#   3260    
MOVMF   DBD4           2902    3999    4002#   4485    4661    
MOVRTS  DC1A           4042#   4045    4047    4049    
MOVSTR  D688           2998    3251#   
MOVVF   DBD0           1454    1910    4000#   
MUL10   DAE2           1472    1486    3866#   4221    4234    4325    
MUL10R  DAF8           3868    3877#   
MULDIV  DAB7           3766    3839#   3896    
MULSHF  D983           3686#   3785    
MULTRT  DA8B           3764    3812#   
MUSTCR  C5AC           856     859#    
MVDONE  D699           3254    3262#   
MVSTRT  D6A2           3265    3267#   
N0999   DDB3           4275#   4320    4321    
N32768  D1A5           2541#   2555    2556    
N9999   DDB8           4276#   4315    4316    
NCMPOS =001E           1599#   
NCRNCH  C57C           835#    5120    
NEGFAC  D947           3583    3654#   
NEGFCH  D94D           3657#   4128    
NEGHLF  D9E0           3726#   3755    3756    
NEGOP   DFB4           334     4228    4506#   4564    4941    4947    4986    5005    
NEGPRC  CDFA           2002#   2161    
NEGRTS  DFBE           4505    4507    4511#   
NEGTAB  C095           333#    
NEGXQS  DD67           4225    4228#   
NERROR  C43A           655#    5120    
NEVAL   CE86           2084#   5120    

VIC20 BASIC  #901486-04 (C)1981 CBM	CR6502/11 version 20.53.12	4-Nov-87  12:9:18	Page X-16
INIT   VBASIC.SRC

                     * * Cross Reference * *

Reference flags  (# = Definition, $ = Write, <BLANK> = Read)

Symbol  Value          References

NEWCHR  CA9D           1559#   1578    
NEWSGO  CD75           1925#   1933    
NEWSTT  C7AE           1148#   1180    1281    1925    
NEXT    CD1E           263     1883#   
NGONE   C7E4           1178#   5120    
NGONE1  C7E7           1179#   
NMAIN   C483           692#    5120    
NMARY1  D237           2613    2617#   
NMIL    DDBD           4277#   4310    4311    
NODATT  C5DE           884     886#    
NODEL   C4ED           708     748#    
NODELC  C508           759     761#    
NOFREF  D384           2814    2816#   
NOML6   CA07           1478    1482#   
NONONO  D1CC           2551    2558#   
NORM1   D929           3588    3637#   
NORM2   D91D           3631#   3637    
NORM3   D8DB           3587#   3609    
NORMAL  D8D7           3582    3584#   3971    4658    
NOSEC   D0BA           2395    2401#   
NOTABR  CB13           1570    1617    1622#   
NOTDIM  D296           2665    2672#   
NOTEVE  D159           2490    2492#   
NOTEVL  D128           2460    2465#   
NOTFDD  D261           2608    2641#   
NOTFL1  D331           2762    2764#   
NOTFLT  D274           2648    2650#   
NOTFNS  D11D           2434    2456#   
NOTIT   D109           2437    2443#   
NOTOL   C753           1093    1098#   
NOTOP   CED4           336     2127#   
NOTQTI  CBCE           1708    1716    1721#   
NOTSTR  D0C4           2402    2406#   
NOTTAB  C098           335#    
NOTTK  =00A8           400#    2123    
NOWGE1  CC7D           1808    1810#   
NOWGET  CC72           1799    1804#   
NOWLIN  CCD1           1840    1852#   
NQPLOP  C71A           1068#   5120    
NTHIS   C5F5           872     898#    
NTHIS1  C5F9           900#    902     
NUMINS  CC89           1789    1815#   
NUMLEV =0017           107#    613     613     
NXTCMP  D05B           2348#   2361    
NXTLGC  C99F           1423    1425#   

VIC20 BASIC  #901486-04 (C)1981 CBM	CR6502/11 version 20.53.12	4-Nov-87  12:9:18	Page X-17
INIT   VBASIC.SRC

                     * * Cross Reference * *

Reference flags  (# = Definition, $ = Write, <BLANK> = Read)

Symbol  Value          References

OKGOTO  C937           1367    1370#   
OKMSG   C364           536#    4781    4782    
OKNORM  CFD1           2259    2279#   
OLDLIN  003B           153#    1231$   1232$   1251    1252    
OLDOV   0056           176#    3534$   3549$   3568    3615    4540$   4561    
OLDTXT  003D           154#    988$    1154$   1155$   1227$   1228$   1244    1248    1676    1677    
OMERR   C435           614     618     644     646     652#    2742    
OMERR1  D30B           2684    2691    2742#   2797    2808    
ONEFUN =00B4           419#    2139    2282    2282    2284    2284    
ONEON   C79F           1133    1136#   
ONGLOP  C957           1383    1386#   1394    
ONGLP1  C95F           1387    1391#   
ONGOTO  C94B           278     1380#   
ONGRTS  C96A           1396#   1401    
OPMASK  004D           167#    1966$   1976    1977    1979$   1983    2017$   2027    2327$   
OPPTR   004B           166#    2004    2061$   
OPTAB   C080           319#    1998    2016    2019    2022    2024    2033    
OROP    CFE6           332     2289#   
OUTCH   E109           1653    4682#   
OUTDO   CB47           671     1046    1087    1587    1592    1638    1653#   
OUTQST  CB45           666     1652#   1742    1779    
OUTRTS  CB4A           1654#   
OUTSPC  CB3B           1577    1628    1645#   1743    
OVERR   D97E           3646    3683#   3864    4257    
PANIC   E467           257     5129#   
PAOC    E216           4812    4817    4874#   
PAOC15  E254           4840    4902#   
PAOC20  E203           4839    4841    4846    4859#   4884    4893    4900    
PAOC30  E20B           4854    4867#   4901    
PAOC32  E20E           4868#   4877    
PAOC40  E213           4870#   
PAOC5   E23C           4890    4892#   
PAOC7   E24E           4900#   
PAOCX   E20A           4860    4863#   4869    
PARCHK  CEF1           2140    2143#   2279    2882    
PATCHS  DF53           4472#   
PEEK    D80D           310     3480#   
PI     =00FF           106#    840     1069    2094    
PI2     E2DD           4916    4917    4973#   5000    5001    
PIVAL   CEA8           2096    2097    2101#   
PLINK   E476           4810    5140#   
PLOOP   C6F3           1046#   1068    1070    1072    
PLOOP1  C700           1048    1052#   
PLOT   =FFF0           1597    1608    2831    4713#   
PLSV    E1D1           4739    4752    4827#   

VIC20 BASIC  #901486-04 (C)1981 CBM	CR6502/11 version 20.53.12	4-Nov-87  12:9:18	Page X-18
INIT   VBASIC.SRC

                     * * Cross Reference * *

Reference flags  (# = Definition, $ = Write, <BLANK> = Read)

Symbol  Value          References

PLSV7   E1FD           4842    4847    4854#   4885    4894    
PLUSTK =00AA           404#    1986    2111    4193    
POKE    D824           284     3494#   
POKER   0014           131#    3476$   3477$   3480    3482    3486    3489$   3491$   3497$   3508    
POLY    E056           4567    4584#   
POLY1   E05A           4579    4586#   
POLY2   E06D           4596#   4609    
POLY3   E069           4592    4594#   
POLY4   E07A           4601    4603#   
POLYPT  0071           214#    4574$   4575$   4584$   4585$   4587    4589    4593$   4594$   4595    4597    4598    4603$   
                       4604$   
POLYX   E040           3754    4574#   4950    4996    
POS     D39E           301     2830#   
POSINT  D1B8           2549#   3423    
PREAM   D761           3325    3351    3364    3378#   
PRINT   CAA0           286     1556    1560#   
PRINTC  CAA2           1561#   1623    
PRINTK =0099           373#    853     
PRINTN  CA80           285     1545#   
PRIT3   C737           1079    1084#   1088    
PRIT4   C6EF           1044#   1086    
PRTRTS  CAE7           1561    1585    1594#   1636    
PTDORL  C09B           337#    2016    
PTRGET  D08B           1428    1755    1886    2186    2380#   2847    
PTRGT1  D090           2375    2382#   
PTRGT2  D092           2383#   2872    
PTRGT3  D09F           2386    2389#   
PULMOR  D725           3345    3347#   
PULSTK  CE66           2008    2020    2062#   
PUSHF   CE38           1137    2034#   
PUSHF1  CE33           2026    2032#   
PUTNEW  D4CA           2993    2999#   3234    3323    3349    
PUTNW1  D4D5           3001    3005#   
Q      =007F           339#    
QCHNUM  CE5D           1999    2058#   
QCOMP   D061           2323    2352#   
QDATA   CC41           1769    1776#   
QDECT1  C4D7           732     735#    
QDOT    CEAD           2095    2107#   
QINLIN  CBF9           1724    1740#   1780    
QINT    DC9B           1487    2559    3473    4119#   4150    4332    
QINT1   DCBB           4132    4137#   
QINTGO  D1CE           2554    2559#   
QINTGR  C9C2           1443#   1817    
QINTRT  DCBA           4109    4135#   

VIC20 BASIC  #901486-04 (C)1981 CBM	CR6502/11 version 20.53.12	4-Nov-87  12:9:18	Page X-19
INIT   VBASIC.SRC

                     * * Cross Reference * *

Reference flags  (# = Definition, $ = Write, <BLANK> = Read)

Symbol  Value          References

QISHFT  DCAF           4124    4130#   
QNUM    0080           220#    1494    
QOP     CE58           1985    1987    2055#   
QOPGO   CE5B           2007    2057#   
QOPRTS  CE80           2057    2079#   
QPLOP   C717           1055    1066#   
QPLUS   DD06           4176    4179#   
QPREC   CDF0           1997#   2018    
QPREC1  CE19           2005    2019#   
QSETNR  E0BB           4617    4635#   
QSHFT   DB4C           3914    3920#   3946    
QSTATV  CF92           2227    2243#   
QSTAVR  D13B           2468    2472    2475#   
QVARIA  CA3D           1505    1510#   
RADDC   E08F           4613#   4641    4642    
RDBAS  =FFF3           4618    4709#   
RDTIM  =FFDE           2235    4693#   
READ    CC06           268     1746#   
READST =FFB7           1727    2247    4703#   
READY   C474           681     684#    1064    1240    5032    5134    
REARTS  C434           622     625     643     647#    
REASAV  C416           629#    632     
REASON  C408           573     621#    2642    2692    5101    
REASTO  C421           635#    638     
REDDY   C376           539#    684     685     4802    4803    
REM     C93B           276     1372#   
REMER   C919           1356#   1362    
REMN    C909           1284    1348#   1372    
REMRTS  C905           1342    1344#   1357    1359    
REMTK  =008F           362#    887     
RESCON  C5B8           867#    904     
RESCR1  C72F           1080#   1082    
RESER   C5B6           865#    870     
RESETC  CC71           1796    1803#   
RESFIN  C827           1212    1214#   1863    
RESHO   0026           139#    3686    3768$   3801    3803$   3804$   3963    
RESLO   0029           143#    3771$   3792    3794$   3807$   3916$   3969    
RESLST  C09E           341#    869     901     903     1081    1085    
RESMO   0028           142#    3770$   3795    3797$   3806$   3967    
RESMOH  0027           140#    3769$   3798    3800$   3805$   3965    
RESRCH  C72C           1078#   1083    
RESTOR  C81D           273     975     1208#   
RETU1   C8EB           1320    1328#   
RETURN  C8D2           275     1314#   
RIGHTD  D72C           317     3351#   

VIC20 BASIC  #901486-04 (C)1981 CBM	CR6502/11 version 20.53.12	4-Nov-87  12:9:18	Page X-20
INIT   VBASIC.SRC

                     * * Cross Reference * *

Reference flags  (# = Definition, $ = Write, <BLANK> = Read)

Symbol  Value          References

RLEFT   D706           3328#   3355    
RLEFT1  D70C           3328    3332#   
RLEFT2  D70D           3333#   3372    
RLEFT3  D70E           3334#   3375    3377    
RMULC   E08A           4612#   4638    4639    
RND     E094           303     4615#   
RND1    E0D0           4616    4644#   
RNDRTS  D946           3644    3652#   
RNDSHF  D938           3645#   4050    
RNDX    008B           222#    4635    4636    4659    4660    
ROLSHF  D9B0           3559    3709#   4143    
ROMLOC =C000           99#     254     2174    2176    
ROUND   DC1B           1444    2042    3891    4002    4035    4044#   
RUN     C871           271     1257#   
RUNC    C659           748     777     959#    1262    
RUNC2   C897           1265    1279#   
SAREG   030C           243#    4723    4732$   
SAVEIT  CA90           1549    1552#   
SAVQUO  DB3F           3903    3906    3909    3912#   3926    3928    
SCRATH  C642           295     945#    
SCRATK =00A2           383#    1185    
SCRTCH  C644           946#    5115    
SETMSG =FF90           688     1259    4711#   
SETQUT  CC65           1791    1797#   
SETTIM =FFDB           1491    4692#   
SGN     DC39           296     4061#   
SGNFLG  0067           201#    4177$   4224    
SHFARG  DB4F           3922#   3943    
SHFTR2  D985           3687#   3698    3699    
SHFTR3  D9A6           3704#   3714    
SHFTR4  D9AC           3705    3707#   
SHFTRT  D9BA           3703    3715#   
SHIFTR  D999           3527    3697#   4133    
SIGN    DC2B           1136    3733    4052#   4061    4086    4615    
SIGNRT  DC38           4053    4057    4059#   
SIN     E268           307     4919#   4955    
SIN1    E29A           4934    4941#   4971    
SIN2    E29D           4937    4942#   
SIN3    E2AA           4946    4948#   
SINCON  E2EC           4948    4949    4976#   
SIZE    0055           175#    3166$   3180    3184$   3196    
SIZEOK  D65D           3221    3225#   
SNERR   CF08           1199    1326    1666    2030    2152    2155#   2387    2473    2923    4870    
SNERR1  C80B           1199#   1202    
SNERR2  C8E8           1326#   1385    

VIC20 BASIC  #901486-04 (C)1981 CBM	CR6502/11 version 20.53.12	4-Nov-87  12:9:18	Page X-21
INIT   VBASIC.SRC

                     * * Cross Reference * *

Reference flags  (# = Definition, $ = Write, <BLANK> = Read)

Symbol  Value          References

SNERR3  C953           1384#   1407    
SNERR4  CB5F           1612    1666#   
SNERR5  CE30           1978    2030#   
SNERRX  C80E           1186    1201#   
SNGFLT  D3A2           2832#   3400    3413    3492    
SPCTK  =00A6           396#    1564    
SPREG   030F           246#    4721    4736$   
SQR     DF71           302     4474#   
SQR05   D9D6           3724#   3743    3744    
SQR20   D9DB           3725#   3746    3747    
SQUEEZ  D936           3629    3644#   
ST2TXT  D7E2           1811    2121    3457#   
STASGN  D056           2340    2342    2345#   
STCURL  CB5B           1661    1664#   
STEPTK =00A9           402#    1132    
STKEND =01FB           104#    982     5030    
STKINI  C67A           675     977#    5132    
STKRTS  C68D           962     990#    1007    
STMDSP  C00C           261#    1189    1191    
STOLD   DFFD           4534    4540#   
STOLOP  C522           773#    776     
STOML1  D337           2765    2768#   
STOMLT  D27D           2653    2656#   
STOP    C82F           277     1219#   
STOPC   C832           1219    1221#   
STORDO  D83C           3504    3506#   
STPEND  C841           1229#   
STR1    C5E5           890#    897     
STRCMP  D02E           2314    2325#   
STRCP   D4BF           2991    2994#   
STRD    D465           312     2946#   
STRDN2  CC91           1813    1818#   
STRDON  CA9A           1558#   1573    
STREND  0031           148#    574$    575$    767     768     972$    973$    2484    2485    2605    2607    2693$   2694$   
                       2711    2715    2819    2822    3032    3035    3060    3061    3094    3096    
STRFI1  D4A8           2974    2981#   
STRFI2  D4A9           2980    2982#   
STRFIN  D4A4           2976    2979#   
STRFRE  D50B           3034    3037#   
STRGET  D497           2972#   2978    
STRINI  D475           1523    2954#   2995    3225    
STRLIT  D487           1575    1630    2120    2953    2964#   
STRLT2  D48D           1810    2967#   
STRNAM  D0DB           2407    2418#   
STRNEX  E0E0           4633    4652#   

VIC20 BASIC  #901486-04 (C)1981 CBM	CR6502/11 version 20.53.12	4-Nov-87  12:9:18	Page X-22
INIT   VBASIC.SRC

                     * * Cross Reference * *

Reference flags  (# = Definition, $ = Write, <BLANK> = Read)

Symbol  Value          References

STRNG   C5EE           848     894#    
STRNG1 =006F           228#    1526$   1527$   2967$   2968$   2973    2984    2986    2990    2996    2997    3214$   3216$   
                       3218    3231    3232    3238    3245    3248    
STRNG2  0071           213#    2985$   2989$   3435$   3436$   3457    3458    
STRNGI  006F           209#    
STROU2  DDDA           4281    4290#   
STROUT  CB1E           678     686     1630#   1675    1872    4290    4783    4804    5104    5114    
STRPR2  CB28           1635#   1641    1643    
STRPRT  CB21           1558    1576    1631#   1720    
STRRTS  CF5C           2196    2198    2200    2211#   
STRSIZ =0003           108#    3000    3000    3000    3090    3308    5070    
STRSPA  D47D           2958#   3317    3335    
STRST2  D4B5           2987    2989#   
STRTX2  CEC6           2118    2120#   
STRTXT  CEBD           1717    2115#   
STUFFH  C5C9           841     845     850     854     858     875#    891     893     
STXBUF  DEB2           4396    4400#   
STXFND  D0EF           2429#   2448    
STXFOR  CD27           1885    1887#   
STXTPT  C68E           959     992#    4809    
SUBFLG  0010           126#    989$    1090$   2408    2420    2426$   2846$   2871$   
SUBIT   D8AF           3564    3566#   
SVAR    D559           3082#   3087    
SVARGO  D561           3083    3086#   
SVARS   D54D           3069    3072#   
SWAPLP  E01B           4555#   4560    
SXREG   030D           244#    4724    4733$   
SYNCHR  CEFF           1115    1205    1369    1432    1551    1688    1705    1719    2150#   2851    2869    
SYREG   030E           245#    4725    4734$   
TABER   CAF8           1563    1566    1606#   
TABTK  =00A3           390#    1562    
TAN     E2B1           308     4952#   
TANSGN  0012           129#    4938    4940$   4954$   4964    
TEMPF1  0057           177#    3997    4577    4580    4581    4959    4960    
TEMPF2  005C           181#    3995    4606    4607    
TEMPF3  004E           169#    4483    4484    4489    4490    4499    4500    4956    4957    4966    4967    
TEMPPT  0016           133#    978$    2999    3021$   3068    3307$   5080$   
TEMPST  0019           135#    977     3000    3064    3065    5079    
TENC    DAF9           3879#   3882    3883    
TENEXP =005E           189#    2202$   4205    4211    4214$   4218$   4222$   4251    4262    4269$   4345$   4419    4424    
THENTK =00A7           398#    1368    
TIMELP  C9ED           1470#   1485    
TIMEND  DF52           4408    4469#   
TIMNUM  CA1D           1471    1475    1493#   
TIMSTR  D46F           2209    2951#   

VIC20 BASIC  #901486-04 (C)1981 CBM	CR6502/11 version 20.53.12	4-Nov-87  12:9:18	Page X-23
INIT   VBASIC.SRC

                     * * Cross Reference * *

Reference flags  (# = Definition, $ = Write, <BLANK> = Read)

Symbol  Value          References

TOTK   =00A4           392#    1114    1204    
TRMNO1  CB62           1658    1668#   
TRMNOK  CB4D           1657#   1822    
TRMOK   CC9D           1819    1824#   
TRMPOS  0009           118#    1609$   1616    
TRYAG2  D4F6           3025#   3052    
TRYAG3  D501           3030    3032#   
TRYAGN  CD0C           1673    1674    1879#   
TRYMOR  C412           623     626#    
TRYOFF  DAC4           3843    3847#   
TSTDUN  C6E6           1037    1040#   
TSTOP   CDB8           1967#   3235    
TSTR10  CF27           2177    2184#   
TSTROM  CF14           2172#   2195    2224    
TURNON  D0D4           2405    2414#   
TVAR    D544           3068#   3071    
TWOPI   E2E2           4920    4921    4974#   
TXTPTR  007A           219#    693$    694$    835     863$    898     908$    913$    995$    998$    1105    1107    1149    
                       1150    1157    1160    1166    1169    1172    1173$   1175$   1222    1223    1249$   1250$   1269    
                       1271    1293    1294    1308$   1311$   1334$   1336$   1340    1341$   1343$   1356    1678$   1679$   
                       1758    1759    1764$   1765$   1781$   1782$   1793$   1805    1806    1824    1825    1830$   1831$   
                       1843    1846    1849    1922$   1924$   1953    1955$   1956$   2012    2014$   2015$   2115    2116    
                       2151    2857    2863    2903    2905    2908$   2911$   2926$   2928$   3433    3434    3438$   3443$   
                       3459$   3460$   4266    4778    4796    
TXTTAB  002B           145#    781     782     916     917     948$    950$    951     955     993     996     1209    1211    
                       1298    1299    4742    4760    4761    5083$   5084$   5093$   5094$   5096$   5099    5100    5107    
                       5110    
TYPLIN  C6E8           1039    1041#   
UMLCNT  D378           2800    2809#   
UMLRTS  D37C           2811#   
UMULT   D34C           2677    2749    2781#   
UMULTC  D35F           2791#   2810    
UMULTD  D355           2770    2786#   
UNPRTS  CE82           2080#   
UNPSTK  CE64           2059    2061#   
USEDEF  E3F0           5087#   
USERR   C8E3           1301    1323#   
USRLOC  C058           299#    
USRPOK  0000           112#    299     5052$   5055$   5056$   
VAL     D7AD           313     3429#   
VAL2    D7CD           3444    3446#   
VALRTS  D7EA           3461#   
VALTYP  000D           122#    1435    1572    1788    1940    1988    2009$   2085$   2191    2326$   2390$   2404$   2564    
                       2596$   2813    2824$   3016$   3404$   
VAREND  CCDF           1833    1859#   

VIC20 BASIC  #901486-04 (C)1981 CBM	CR6502/11 version 20.53.12	4-Nov-87  12:9:18	Page X-24
INIT   VBASIC.SRC

                     * * Cross Reference * *

Reference flags  (# = Definition, $ = Write, <BLANK> = Read)

Symbol  Value          References

VARNAM  0045           158#    2189    2190    2383$   2412    2413$   2418$   2435    2438    2465    2466    2501    2504    
                       2569    2571    2575$   2577$   2612    2614    2646    2651    2761    2764    
VAROK   D143           2477    2480#   
VARPNT  0047           160#    2523$   2524$   2773$   2776$   2778    2853    2855    2890$   2895$   2897    2901    2912    
                       2914    
VARTAB  002D           146#    712     720     721$    723     725$    730     753     757     769$    770$    954$    957$    
                       968     969     1511    1515    2427    2428    3074    3075    4740    4741    4800$   4801$   
VARTXT  004B           165#    1760$   1761$   1828    1829    
VARY0   CCEA           1862    1865#   
VERCK   000A           119#    4751$   4759    4765    
WAITER  D840           3508#   3511    
WORDS   E429           5112    5113    5117#   
XSPAC   CB0F           1614    1619#   
XSPAC1  CB19           1621    1628#   
XSPAC2  CB10           1620#   1629    
ZEREMV  DADA           3840    3847    3860#   
ZERITA  D2C8           2703#   2705    2708    
ZERO    DF13           1458    2461    2462    4455#   
ZEROF1  D8F9           3611#   4481    
ZEROFC  D8F7           3431    3610#   3640    3862    
ZEROML  D8FB           3612#   3851    
ZERRTS  D848           3512#   3538    
ZZ1    =01FF           910#    912     
ZZ2    =0201           1691#   1692    
ZZ3    =0202           1693#   1694    
ZZ4    =01FF           1772#   1773    1774    
ZZ5    =01FF           1581#   1582    1583    
ZZ6    =CF2A           2458#   2459    
